
avr_test.elf:     file format elf32-avr

Sections:
Idx Name          Size      VMA       LMA       File off  Algn
  0 .data         00000158  00800100  000024e8  0000257c  2**0
                  CONTENTS, ALLOC, LOAD, DATA
  1 .text         000024e8  00000000  00000000  00000094  2**1
                  CONTENTS, ALLOC, LOAD, READONLY, CODE
  2 .bss          000003b4  00800258  00800258  000026d4  2**0
                  ALLOC
  3 .comment      0000005c  00000000  00000000  000026d4  2**0
                  CONTENTS, READONLY
  4 .note.gnu.avr.deviceinfo 00000040  00000000  00000000  00002730  2**2
                  CONTENTS, READONLY
  5 .debug_aranges 00000450  00000000  00000000  00002770  2**0
                  CONTENTS, READONLY, DEBUGGING
  6 .debug_info   00006293  00000000  00000000  00002bc0  2**0
                  CONTENTS, READONLY, DEBUGGING
  7 .debug_abbrev 00001a80  00000000  00000000  00008e53  2**0
                  CONTENTS, READONLY, DEBUGGING
  8 .debug_line   0000268d  00000000  00000000  0000a8d3  2**0
                  CONTENTS, READONLY, DEBUGGING
  9 .debug_frame  0000115c  00000000  00000000  0000cf60  2**2
                  CONTENTS, READONLY, DEBUGGING
 10 .debug_str    0000115c  00000000  00000000  0000e0bc  2**0
                  CONTENTS, READONLY, DEBUGGING
 11 .debug_loc    00005665  00000000  00000000  0000f218  2**0
                  CONTENTS, READONLY, DEBUGGING
 12 .debug_ranges 00000408  00000000  00000000  0001487d  2**0
                  CONTENTS, READONLY, DEBUGGING

Disassembly of section .text:

00000000 <__vectors>:
       0:	0c 94 33 02 	jmp	0x466	; 0x466 <__ctors_end>
       4:	0c 94 50 02 	jmp	0x4a0	; 0x4a0 <__bad_interrupt>
       8:	0c 94 50 02 	jmp	0x4a0	; 0x4a0 <__bad_interrupt>
       c:	0c 94 50 02 	jmp	0x4a0	; 0x4a0 <__bad_interrupt>
      10:	0c 94 50 02 	jmp	0x4a0	; 0x4a0 <__bad_interrupt>
      14:	0c 94 50 02 	jmp	0x4a0	; 0x4a0 <__bad_interrupt>
      18:	0c 94 50 02 	jmp	0x4a0	; 0x4a0 <__bad_interrupt>
      1c:	0c 94 50 02 	jmp	0x4a0	; 0x4a0 <__bad_interrupt>
      20:	0c 94 50 02 	jmp	0x4a0	; 0x4a0 <__bad_interrupt>
      24:	0c 94 50 02 	jmp	0x4a0	; 0x4a0 <__bad_interrupt>
      28:	0c 94 50 02 	jmp	0x4a0	; 0x4a0 <__bad_interrupt>
      2c:	0c 94 50 02 	jmp	0x4a0	; 0x4a0 <__bad_interrupt>
      30:	0c 94 50 02 	jmp	0x4a0	; 0x4a0 <__bad_interrupt>
      34:	0c 94 50 02 	jmp	0x4a0	; 0x4a0 <__bad_interrupt>
      38:	0c 94 09 04 	jmp	0x812	; 0x812 <__vector_14>
      3c:	0c 94 50 02 	jmp	0x4a0	; 0x4a0 <__bad_interrupt>
      40:	0c 94 50 02 	jmp	0x4a0	; 0x4a0 <__bad_interrupt>
      44:	0c 94 50 02 	jmp	0x4a0	; 0x4a0 <__bad_interrupt>
      48:	0c 94 50 02 	jmp	0x4a0	; 0x4a0 <__bad_interrupt>
      4c:	0c 94 50 02 	jmp	0x4a0	; 0x4a0 <__bad_interrupt>
      50:	0c 94 50 02 	jmp	0x4a0	; 0x4a0 <__bad_interrupt>
      54:	0c 94 77 02 	jmp	0x4ee	; 0x4ee <__vector_21>
      58:	0c 94 50 02 	jmp	0x4a0	; 0x4a0 <__bad_interrupt>
      5c:	0c 94 50 02 	jmp	0x4a0	; 0x4a0 <__bad_interrupt>
      60:	0c 94 50 02 	jmp	0x4a0	; 0x4a0 <__bad_interrupt>
      64:	0c 94 50 02 	jmp	0x4a0	; 0x4a0 <__bad_interrupt>

00000068 <__trampolines_end>:
      68:	6e 61       	ori	r22, 0x1E	; 30
      6a:	6e 00       	.word	0x006e	; ????

0000006c <__c.2332>:
      6c:	69 6e 66 00 00 40 7a 10 f3 5a 00 a0 72 4e 18 09     inf..@z..Z..rN..
      7c:	00 10 a5 d4 e8 00 00 e8 76 48 17 00 00 e4 0b 54     ........vH.....T
      8c:	02 00 00 ca 9a 3b 00 00 00 e1 f5 05 00 00 80 96     .....;..........
      9c:	98 00 00 00 40 42 0f 00 00 00 a0 86 01 00 00 00     ....@B..........
      ac:	10 27 00 00 00 00 e8 03 00 00 00 00 64 00 00 00     .'..........d...
      bc:	00 00 0a 00 00 00 00 00 01 00 00 00 00 00 2c 76     ..............,v
      cc:	d8 88 dc 67 4f 08 23 df c1 df ae 59 e1 b1 b7 96     ...gO.#....Y....
      dc:	e5 e3 e4 53 c6 3a e6 51 99 76 96 e8 e6 c2 84 26     ...S.:.Q.v.....&
      ec:	eb 89 8c 9b 62 ed 40 7c 6f fc ef bc 9c 9f 40 f2     ....b.@|o.....@.
      fc:	ba a5 6f a5 f4 90 05 5a 2a f7 5c 93 6b 6c f9 67     ..o....Z*.\.kl.g
     10c:	6d c1 1b fc e0 e4 0d 47 fe f5 20 e6 b5 00 d0 ed     m......G.. .....
     11c:	90 2e 03 00 94 35 77 05 00 80 84 1e 08 00 00 20     .....5w........ 
     12c:	4e 0a 00 00 00 c8 0c 33 33 33 33 0f 98 6e 12 83     N......3333..n..
     13c:	11 41 ef 8d 21 14 89 3b e6 55 16 cf fe e6 db 18     .A..!..;.U......
     14c:	d1 84 4b 38 1b f7 7c 1d 90 1d a4 bb e4 24 20 32     ..K8..|......$ 2
     15c:	84 72 5e 22 81 00 c9 f1 24 ec a1 e5 3d 27           .r^"....$...='

0000016a <TinyFont>:
     16a:	08 08 20 5f 00 00 00 00 00 00 00 00 18 3c 3c 18     .. _.........<<.
     17a:	18 00 18 00 66 66 24 00 00 00 00 00 6c 6c fe 6c     ....ff$.....ll.l
     18a:	fe 6c 6c 00 18 3e 60 3c 06 7c 18 00 00 c6 cc 18     .ll..>`<.|......
     19a:	30 66 c6 00 38 6c 38 76 dc cc 76 00 18 18 30 00     0f..8l8v..v...0.
     1aa:	00 00 00 00 0c 18 30 30 30 18 0c 00 30 18 0c 0c     ......000...0...
     1ba:	0c 18 30 00 00 66 3c ff 3c 66 00 00 00 18 18 7e     ..0..f<.<f.....~
     1ca:	18 18 00 00 00 00 00 00 00 18 18 30 00 00 00 7e     ...........0...~
	...
     1e2:	00 18 18 00 06 0c 18 30 60 c0 80 00 7c c6 ce d6     .......0`...|...
     1f2:	e6 c6 7c 00 18 38 18 18 18 18 7e 00 7c c6 06 1c     ..|..8....~.|...
     202:	30 66 fe 00 7c c6 06 3c 06 c6 7c 00 1c 3c 6c cc     0f..|..<..|..<l.
     212:	fe 0c 1e 00 fe c0 c0 fc 06 c6 7c 00 38 60 c0 fc     ..........|.8`..
     222:	c6 c6 7c 00 fe c6 0c 18 30 30 30 00 7c c6 c6 7c     ..|.....000.|..|
     232:	c6 c6 7c 00 7c c6 c6 7e 06 0c 78 00 00 18 18 00     ..|.|..~..x.....
     242:	00 18 18 00 00 18 18 00 00 18 18 30 06 0c 18 30     ...........0...0
     252:	18 0c 06 00 00 00 7e 00 00 7e 00 00 60 30 18 0c     ......~..~..`0..
     262:	18 30 60 00 7c c6 0c 18 18 00 18 00 7c c6 de de     .0`.|.......|...
     272:	de c0 78 00 38 6c c6 fe c6 c6 c6 00 fc 66 66 7c     ..x.8l.......ff|
     282:	66 66 fc 00 3c 66 c0 c0 c0 66 3c 00 f8 6c 66 66     ff..<f...f<..lff
     292:	66 6c f8 00 fe 62 68 78 68 62 fe 00 fe 62 68 78     fl...bhxhb...bhx
     2a2:	68 60 f0 00 3c 66 c0 c0 ce 66 3a 00 c6 c6 c6 fe     h`..<f...f:.....
     2b2:	c6 c6 c6 00 3c 18 18 18 18 18 3c 00 1e 0c 0c 0c     ....<.....<.....
     2c2:	cc cc 78 00 e6 66 6c 78 6c 66 e6 00 f0 60 60 60     ..x..flxlf...```
     2d2:	62 66 fe 00 c6 ee fe fe d6 c6 c6 00 c6 e6 f6 de     bf..............
     2e2:	ce c6 c6 00 7c c6 c6 c6 c6 c6 7c 00 fc 66 66 7c     ....|.....|..ff|
     2f2:	60 60 f0 00 7c c6 c6 c6 c6 ce 7c 0e fc 66 66 7c     ``..|.....|..ff|
     302:	6c 66 e6 00 7c c6 60 38 0c c6 7c 00 7e 7e 5a 18     lf..|.`8..|.~~Z.
     312:	18 18 3c 00 c6 c6 c6 c6 c6 c6 7c 00 c6 c6 c6 c6     ..<.......|.....
     322:	c6 6c 38 00 c6 c6 c6 d6 d6 fe 6c 00 c6 c6 6c 38     .l8.......l...l8
     332:	6c c6 c6 00 66 66 66 3c 18 18 3c 00 fe c6 8c 18     l...fff<..<.....
     342:	32 66 fe 00 3c 30 30 30 30 30 3c 00 c0 60 30 18     2f..<00000<..`0.
     352:	0c 06 02 00 3c 0c 0c 0c 0c 0c 3c 00 10 38 6c c6     ....<.....<..8l.
	...
     36a:	00 00 00 ff 30 18 0c 00 00 00 00 00 00 00 78 0c     ....0.........x.
     37a:	7c cc 76 00 e0 60 7c 66 66 66 dc 00 00 00 7c c6     |.v..`|fff....|.
     38a:	c0 c6 7c 00 1c 0c 7c cc cc cc 76 00 00 00 7c c6     ..|...|...v...|.
     39a:	fe c0 7c 00 3c 66 60 f8 60 60 f0 00 00 00 76 cc     ..|.<f`.``....v.
     3aa:	cc 7c 0c f8 e0 60 6c 76 66 66 e6 00 18 00 38 18     .|...`lvff....8.
     3ba:	18 18 3c 00 06 00 06 06 06 66 66 3c e0 60 66 6c     ..<......ff<.`fl
     3ca:	78 6c e6 00 38 18 18 18 18 18 3c 00 00 00 ec fe     xl..8.....<.....
     3da:	d6 d6 d6 00 00 00 dc 66 66 66 66 00 00 00 7c c6     .......ffff...|.
     3ea:	c6 c6 7c 00 00 00 dc 66 66 7c 60 f0 00 00 76 cc     ..|....ff|`...v.
     3fa:	cc 7c 0c 1e 00 00 dc 76 60 60 f0 00 00 00 7e c0     .|.....v``....~.
     40a:	7c 06 fc 00 30 30 fc 30 30 36 1c 00 00 00 cc cc     |...00.006......
     41a:	cc cc 76 00 00 00 c6 c6 c6 6c 38 00 00 00 c6 d6     ..v......l8.....
     42a:	d6 fe 6c 00 00 00 c6 6c 38 6c c6 00 00 00 c6 c6     ..l....l8l......
     43a:	c6 7e 06 fc 00 00 7e 4c 18 32 7e 00 0e 18 18 70     .~....~L.2~....p
     44a:	18 18 0e 00 18 18 18 18 18 18 18 00 70 18 18 0e     ............p...
     45a:	18 18 70 00 76 dc 00 00 00 00 00 00                 ..p.v.......

00000466 <__ctors_end>:
     466:	11 24       	eor	r1, r1
     468:	1f be       	out	0x3f, r1	; 63
     46a:	cf ef       	ldi	r28, 0xFF	; 255
     46c:	d8 e0       	ldi	r29, 0x08	; 8
     46e:	de bf       	out	0x3e, r29	; 62
     470:	cd bf       	out	0x3d, r28	; 61

00000472 <__do_copy_data>:
     472:	12 e0       	ldi	r17, 0x02	; 2
     474:	a0 e0       	ldi	r26, 0x00	; 0
     476:	b1 e0       	ldi	r27, 0x01	; 1
     478:	e8 ee       	ldi	r30, 0xE8	; 232
     47a:	f4 e2       	ldi	r31, 0x24	; 36
     47c:	02 c0       	rjmp	.+4      	; 0x482 <__do_copy_data+0x10>
     47e:	05 90       	lpm	r0, Z+
     480:	0d 92       	st	X+, r0
     482:	a8 35       	cpi	r26, 0x58	; 88
     484:	b1 07       	cpc	r27, r17
     486:	d9 f7       	brne	.-10     	; 0x47e <__do_copy_data+0xc>

00000488 <__do_clear_bss>:
     488:	26 e0       	ldi	r18, 0x06	; 6
     48a:	a8 e5       	ldi	r26, 0x58	; 88
     48c:	b2 e0       	ldi	r27, 0x02	; 2
     48e:	01 c0       	rjmp	.+2      	; 0x492 <.do_clear_bss_start>

00000490 <.do_clear_bss_loop>:
     490:	1d 92       	st	X+, r1

00000492 <.do_clear_bss_start>:
     492:	ac 30       	cpi	r26, 0x0C	; 12
     494:	b2 07       	cpc	r27, r18
     496:	e1 f7       	brne	.-8      	; 0x490 <.do_clear_bss_loop>
     498:	0e 94 65 06 	call	0xcca	; 0xcca <main>
     49c:	0c 94 72 12 	jmp	0x24e4	; 0x24e4 <_exit>

000004a0 <__bad_interrupt>:
     4a0:	0c 94 00 00 	jmp	0	; 0x0 <__vectors>

000004a4 <ADC_init>:

void ema_filter_array(volatile uint16_t *data,  uint8_t size, float alpha) { 
	for(uint8_t i = 1; i < size; i++) {
		data[i-1] = ema_filter(data[i], data[i-1], alpha);
	}
}
     4a4:	cf 93       	push	r28
     4a6:	df 93       	push	r29
     4a8:	ac e7       	ldi	r26, 0x7C	; 124
     4aa:	b0 e0       	ldi	r27, 0x00	; 0
     4ac:	8c 91       	ld	r24, X
     4ae:	8f 73       	andi	r24, 0x3F	; 63
     4b0:	80 64       	ori	r24, 0x40	; 64
     4b2:	8c 93       	st	X, r24
     4b4:	ea e7       	ldi	r30, 0x7A	; 122
     4b6:	f0 e0       	ldi	r31, 0x00	; 0
     4b8:	80 81       	ld	r24, Z
     4ba:	87 60       	ori	r24, 0x07	; 7
     4bc:	80 83       	st	Z, r24
     4be:	cb e7       	ldi	r28, 0x7B	; 123
     4c0:	d0 e0       	ldi	r29, 0x00	; 0
     4c2:	88 81       	ld	r24, Y
     4c4:	88 7f       	andi	r24, 0xF8	; 248
     4c6:	83 60       	ori	r24, 0x03	; 3
     4c8:	88 83       	st	Y, r24
     4ca:	80 81       	ld	r24, Z
     4cc:	88 62       	ori	r24, 0x28	; 40
     4ce:	80 83       	st	Z, r24
     4d0:	8c 91       	ld	r24, X
     4d2:	80 7f       	andi	r24, 0xF0	; 240
     4d4:	81 60       	ori	r24, 0x01	; 1
     4d6:	8c 93       	st	X, r24
     4d8:	ae e7       	ldi	r26, 0x7E	; 126
     4da:	b0 e0       	ldi	r27, 0x00	; 0
     4dc:	8c 91       	ld	r24, X
     4de:	81 e0       	ldi	r24, 0x01	; 1
     4e0:	8c 93       	st	X, r24
     4e2:	80 81       	ld	r24, Z
     4e4:	80 68       	ori	r24, 0x80	; 128
     4e6:	80 83       	st	Z, r24
     4e8:	df 91       	pop	r29
     4ea:	cf 91       	pop	r28
     4ec:	08 95       	ret

000004ee <__vector_21>:
//256 ‡Á ¿÷œ ÔËÌ‡ÂÚÒˇ Ú‡ÈÏÂÓÏ 0
ISR(ADC_vect){
     4ee:	1f 92       	push	r1
     4f0:	0f 92       	push	r0
     4f2:	0f b6       	in	r0, 0x3f	; 63
     4f4:	0f 92       	push	r0
     4f6:	11 24       	eor	r1, r1
     4f8:	2f 93       	push	r18
     4fa:	8f 93       	push	r24
     4fc:	9f 93       	push	r25
     4fe:	ef 93       	push	r30
     500:	ff 93       	push	r31
	ADC_data[adc_dt++] = ADCL|(ADCH << 8);
     502:	e0 91 58 02 	lds	r30, 0x0258	; 0x800258 <__data_end>
     506:	81 e0       	ldi	r24, 0x01	; 1
     508:	8e 0f       	add	r24, r30
     50a:	80 93 58 02 	sts	0x0258, r24	; 0x800258 <__data_end>
     50e:	f0 e0       	ldi	r31, 0x00	; 0
     510:	80 91 78 00 	lds	r24, 0x0078	; 0x800078 <__TEXT_REGION_LENGTH__+0x7f8078>
     514:	20 91 79 00 	lds	r18, 0x0079	; 0x800079 <__TEXT_REGION_LENGTH__+0x7f8079>
     518:	90 e0       	ldi	r25, 0x00	; 0
     51a:	92 2b       	or	r25, r18
     51c:	ee 0f       	add	r30, r30
     51e:	ff 1f       	adc	r31, r31
     520:	e7 5a       	subi	r30, 0xA7	; 167
     522:	fd 4f       	sbci	r31, 0xFD	; 253
     524:	91 83       	std	Z+1, r25	; 0x01
     526:	80 83       	st	Z, r24
     528:	ff 91       	pop	r31
     52a:	ef 91       	pop	r30
     52c:	9f 91       	pop	r25
     52e:	8f 91       	pop	r24
     530:	2f 91       	pop	r18
     532:	0f 90       	pop	r0
     534:	0f be       	out	0x3f, r0	; 63
     536:	0f 90       	pop	r0
     538:	1f 90       	pop	r1
     53a:	18 95       	reti

0000053c <bme280_send_data>:
 //—á–∏—Ç–∞–µ–º –ø–æ—Ä—Ü–∏—é –¥–∞–Ω–Ω—ã—Ö —Å –¥–∞—Ç—á–∏–∫–∞
uint8_t read_raw_data_bme280(uint8_t start_addr, uint8_t *data,  uint8_t num_bytes){
 // if(read_byte_i2c(BME280_ADDR, ID) != 0x60) { return ERROR; }
 bme280_readdata(BME280_ADDR, start_addr, data, num_bytes);
  return SUCCESS;
}
     53c:	ff 92       	push	r15
     53e:	0f 93       	push	r16
     540:	1f 93       	push	r17
     542:	cf 93       	push	r28
     544:	df 93       	push	r29
     546:	c8 2f       	mov	r28, r24
     548:	f6 2e       	mov	r15, r22
     54a:	17 2f       	mov	r17, r23
     54c:	04 2f       	mov	r16, r20
     54e:	0e 94 b9 05 	call	0xb72	; 0xb72 <start_cond>
     552:	8c 2f       	mov	r24, r28
     554:	0e 94 cd 05 	call	0xb9a	; 0xb9a <i2c_sendbyte>
     558:	00 23       	and	r16, r16
     55a:	71 f0       	breq	.+28     	; 0x578 <bme280_send_data+0x3c>
     55c:	cf 2d       	mov	r28, r15
     55e:	d1 2f       	mov	r29, r17
     560:	01 50       	subi	r16, 0x01	; 1
     562:	10 e0       	ldi	r17, 0x00	; 0
     564:	0f 5f       	subi	r16, 0xFF	; 255
     566:	1f 4f       	sbci	r17, 0xFF	; 255
     568:	0c 0f       	add	r16, r28
     56a:	1d 1f       	adc	r17, r29
     56c:	89 91       	ld	r24, Y+
     56e:	0e 94 cd 05 	call	0xb9a	; 0xb9a <i2c_sendbyte>
     572:	c0 17       	cp	r28, r16
     574:	d1 07       	cpc	r29, r17
     576:	d1 f7       	brne	.-12     	; 0x56c <bme280_send_data+0x30>
     578:	0e 94 e9 05 	call	0xbd2	; 0xbd2 <stop_cond>
     57c:	80 e0       	ldi	r24, 0x00	; 0
     57e:	df 91       	pop	r29
     580:	cf 91       	pop	r28
     582:	1f 91       	pop	r17
     584:	0f 91       	pop	r16
     586:	ff 90       	pop	r15
     588:	08 95       	ret

0000058a <bme280_readbyte>:
     58a:	cf 93       	push	r28
     58c:	df 93       	push	r29
     58e:	c8 2f       	mov	r28, r24
     590:	d6 2f       	mov	r29, r22
     592:	0e 94 b9 05 	call	0xb72	; 0xb72 <start_cond>
     596:	8c 2f       	mov	r24, r28
     598:	0e 94 cd 05 	call	0xb9a	; 0xb9a <i2c_sendbyte>
     59c:	8d 2f       	mov	r24, r29
     59e:	0e 94 cd 05 	call	0xb9a	; 0xb9a <i2c_sendbyte>
     5a2:	0e 94 b9 05 	call	0xb72	; 0xb72 <start_cond>
     5a6:	8c 2f       	mov	r24, r28
     5a8:	81 60       	ori	r24, 0x01	; 1
     5aa:	0e 94 cd 05 	call	0xb9a	; 0xb9a <i2c_sendbyte>
     5ae:	85 e0       	ldi	r24, 0x05	; 5
     5b0:	0e 94 ef 05 	call	0xbde	; 0xbde <i2c_readbyte>
     5b4:	c8 2f       	mov	r28, r24
     5b6:	0e 94 e9 05 	call	0xbd2	; 0xbd2 <stop_cond>
     5ba:	8c 2f       	mov	r24, r28
     5bc:	df 91       	pop	r29
     5be:	cf 91       	pop	r28
     5c0:	08 95       	ret

000005c2 <bme280_readdata>:
     5c2:	bf 92       	push	r11
     5c4:	cf 92       	push	r12
     5c6:	df 92       	push	r13
     5c8:	ef 92       	push	r14
     5ca:	ff 92       	push	r15
     5cc:	0f 93       	push	r16
     5ce:	1f 93       	push	r17
     5d0:	cf 93       	push	r28
     5d2:	df 93       	push	r29
     5d4:	c8 2f       	mov	r28, r24
     5d6:	16 2f       	mov	r17, r22
     5d8:	b4 2e       	mov	r11, r20
     5da:	05 2f       	mov	r16, r21
     5dc:	d2 2f       	mov	r29, r18
     5de:	0e 94 b9 05 	call	0xb72	; 0xb72 <start_cond>
     5e2:	8c 2f       	mov	r24, r28
     5e4:	0e 94 cd 05 	call	0xb9a	; 0xb9a <i2c_sendbyte>
     5e8:	84 30       	cpi	r24, 0x04	; 4
     5ea:	59 f0       	breq	.+22     	; 0x602 <bme280_readdata+0x40>
     5ec:	81 e0       	ldi	r24, 0x01	; 1
     5ee:	df 91       	pop	r29
     5f0:	cf 91       	pop	r28
     5f2:	1f 91       	pop	r17
     5f4:	0f 91       	pop	r16
     5f6:	ff 90       	pop	r15
     5f8:	ef 90       	pop	r14
     5fa:	df 90       	pop	r13
     5fc:	cf 90       	pop	r12
     5fe:	bf 90       	pop	r11
     600:	08 95       	ret
     602:	81 2f       	mov	r24, r17
     604:	0e 94 cd 05 	call	0xb9a	; 0xb9a <i2c_sendbyte>
     608:	84 30       	cpi	r24, 0x04	; 4
     60a:	81 f7       	brne	.-32     	; 0x5ec <bme280_readdata+0x2a>
     60c:	0e 94 b9 05 	call	0xb72	; 0xb72 <start_cond>
     610:	8c 2f       	mov	r24, r28
     612:	81 60       	ori	r24, 0x01	; 1
     614:	0e 94 cd 05 	call	0xb9a	; 0xb9a <i2c_sendbyte>
     618:	84 30       	cpi	r24, 0x04	; 4
     61a:	41 f7       	brne	.-48     	; 0x5ec <bme280_readdata+0x2a>
     61c:	dd 23       	and	r29, r29
     61e:	21 f1       	breq	.+72     	; 0x668 <bme280_readdata+0xa6>
     620:	ed 2e       	mov	r14, r29
     622:	f1 2c       	mov	r15, r1
     624:	81 e0       	ldi	r24, 0x01	; 1
     626:	e8 1a       	sub	r14, r24
     628:	f1 08       	sbc	r15, r1
     62a:	cb 2c       	mov	r12, r11
     62c:	d0 2e       	mov	r13, r16
     62e:	d1 50       	subi	r29, 0x01	; 1
     630:	cd 2f       	mov	r28, r29
     632:	d0 e0       	ldi	r29, 0x00	; 0
     634:	21 96       	adiw	r28, 0x01	; 1
     636:	00 e0       	ldi	r16, 0x00	; 0
     638:	10 e0       	ldi	r17, 0x00	; 0
     63a:	0d c0       	rjmp	.+26     	; 0x656 <bme280_readdata+0x94>
     63c:	84 e0       	ldi	r24, 0x04	; 4
     63e:	0e 94 ef 05 	call	0xbde	; 0xbde <i2c_readbyte>
     642:	f6 01       	movw	r30, r12
     644:	80 83       	st	Z, r24
     646:	0f 5f       	subi	r16, 0xFF	; 255
     648:	1f 4f       	sbci	r17, 0xFF	; 255
     64a:	ff ef       	ldi	r31, 0xFF	; 255
     64c:	cf 1a       	sub	r12, r31
     64e:	df 0a       	sbc	r13, r31
     650:	0c 17       	cp	r16, r28
     652:	1d 07       	cpc	r17, r29
     654:	49 f0       	breq	.+18     	; 0x668 <bme280_readdata+0xa6>
     656:	0e 15       	cp	r16, r14
     658:	1f 05       	cpc	r17, r15
     65a:	84 f3       	brlt	.-32     	; 0x63c <bme280_readdata+0x7a>
     65c:	85 e0       	ldi	r24, 0x05	; 5
     65e:	0e 94 ef 05 	call	0xbde	; 0xbde <i2c_readbyte>
     662:	f6 01       	movw	r30, r12
     664:	80 83       	st	Z, r24
     666:	ef cf       	rjmp	.-34     	; 0x646 <bme280_readdata+0x84>
     668:	0e 94 e9 05 	call	0xbd2	; 0xbd2 <stop_cond>
     66c:	80 e0       	ldi	r24, 0x00	; 0
     66e:	bf cf       	rjmp	.-130    	; 0x5ee <bme280_readdata+0x2c>

00000670 <get_compens>:


//–∑–∞–ø–∏—Å—å –≤ —Å—Ç—Ä—É–∫—Ç—É—Ä—É –∫–æ–º–ø–µ–Ω—Å–∞—Ü–∏–æ–Ω–Ω—ã—Ö –∫–æ–Ω—Å—Ç–∞–Ω—Ç, —Å—á–∏—Ç–∞–Ω–Ω—ã—Ö —Å –¥–∞—Ç—á–∏–∫–∞
uint8_t get_compens(compensation *dt){
     670:	cf 93       	push	r28
     672:	df 93       	push	r29
     674:	ec 01       	movw	r28, r24
  bme280_send_data(BME280_ADDR, reset, 2);
}
 //—á–∏—Ç–∞–µ–º –ø–æ—Ä—Ü–∏—é –¥–∞–Ω–Ω—ã—Ö —Å –¥–∞—Ç—á–∏–∫–∞
uint8_t read_raw_data_bme280(uint8_t start_addr, uint8_t *data,  uint8_t num_bytes){
 // if(read_byte_i2c(BME280_ADDR, ID) != 0x60) { return ERROR; }
 bme280_readdata(BME280_ADDR, start_addr, data, num_bytes);
     676:	29 e1       	ldi	r18, 0x19	; 25
     678:	49 e5       	ldi	r20, 0x59	; 89
     67a:	54 e0       	ldi	r21, 0x04	; 4
     67c:	68 e8       	ldi	r22, 0x88	; 136
     67e:	8c ee       	ldi	r24, 0xEC	; 236
     680:	0e 94 e1 02 	call	0x5c2	; 0x5c2 <bme280_readdata>
     684:	27 e0       	ldi	r18, 0x07	; 7
     686:	42 e7       	ldi	r20, 0x72	; 114
     688:	54 e0       	ldi	r21, 0x04	; 4
     68a:	61 ee       	ldi	r22, 0xE1	; 225
     68c:	8c ee       	ldi	r24, 0xEC	; 236
     68e:	0e 94 e1 02 	call	0x5c2	; 0x5c2 <bme280_readdata>
     692:	e9 e5       	ldi	r30, 0x59	; 89
     694:	f4 e0       	ldi	r31, 0x04	; 4
//–∑–∞–ø–∏—Å—å –≤ —Å—Ç—Ä—É–∫—Ç—É—Ä—É –∫–æ–º–ø–µ–Ω—Å–∞—Ü–∏–æ–Ω–Ω—ã—Ö –∫–æ–Ω—Å—Ç–∞–Ω—Ç, —Å—á–∏—Ç–∞–Ω–Ω—ã—Ö —Å –¥–∞—Ç—á–∏–∫–∞
uint8_t get_compens(compensation *dt){
  static uint8_t comp_data[NUM_COMP_BYTES_1 + NUM_COMP_BYTES_2] = {0};
  read_raw_data_bme280(START_COMP_ADDR_1, comp_data, NUM_COMP_BYTES_1);
  read_raw_data_bme280(START_COMP_ADDR_2, &comp_data[NUM_COMP_BYTES_1], NUM_COMP_BYTES_2);
  dt->dig_T1 = comp_data[1] << 8 | comp_data[0];
     696:	80 81       	ld	r24, Z
     698:	91 81       	ldd	r25, Z+1	; 0x01
     69a:	99 83       	std	Y+1, r25	; 0x01
     69c:	88 83       	st	Y, r24
  dt->dig_T2 = comp_data[3] << 8 | comp_data[2];
     69e:	82 81       	ldd	r24, Z+2	; 0x02
     6a0:	93 81       	ldd	r25, Z+3	; 0x03
     6a2:	9b 83       	std	Y+3, r25	; 0x03
     6a4:	8a 83       	std	Y+2, r24	; 0x02
  dt->dig_T3 = comp_data[5] << 8 | comp_data[4];
     6a6:	84 81       	ldd	r24, Z+4	; 0x04
     6a8:	95 81       	ldd	r25, Z+5	; 0x05
     6aa:	9d 83       	std	Y+5, r25	; 0x05
     6ac:	8c 83       	std	Y+4, r24	; 0x04
  dt->dig_P1 = comp_data[7] << 8 | comp_data[6];
     6ae:	86 81       	ldd	r24, Z+6	; 0x06
     6b0:	97 81       	ldd	r25, Z+7	; 0x07
     6b2:	9f 83       	std	Y+7, r25	; 0x07
     6b4:	8e 83       	std	Y+6, r24	; 0x06
  dt->dig_P2 = comp_data[9] << 8 | comp_data[8];
     6b6:	80 85       	ldd	r24, Z+8	; 0x08
     6b8:	91 85       	ldd	r25, Z+9	; 0x09
     6ba:	99 87       	std	Y+9, r25	; 0x09
     6bc:	88 87       	std	Y+8, r24	; 0x08
  dt->dig_P3 = comp_data[11] << 8 | comp_data[10];
     6be:	82 85       	ldd	r24, Z+10	; 0x0a
     6c0:	93 85       	ldd	r25, Z+11	; 0x0b
     6c2:	9b 87       	std	Y+11, r25	; 0x0b
     6c4:	8a 87       	std	Y+10, r24	; 0x0a
  dt->dig_P4 = comp_data[13] << 8 | comp_data[12];
     6c6:	84 85       	ldd	r24, Z+12	; 0x0c
     6c8:	95 85       	ldd	r25, Z+13	; 0x0d
     6ca:	9d 87       	std	Y+13, r25	; 0x0d
     6cc:	8c 87       	std	Y+12, r24	; 0x0c
  dt->dig_P5 = comp_data[15] << 8 | comp_data[14];
     6ce:	86 85       	ldd	r24, Z+14	; 0x0e
     6d0:	97 85       	ldd	r25, Z+15	; 0x0f
     6d2:	9f 87       	std	Y+15, r25	; 0x0f
     6d4:	8e 87       	std	Y+14, r24	; 0x0e
  dt->dig_P6 = comp_data[17] << 8 | comp_data[16];
     6d6:	80 89       	ldd	r24, Z+16	; 0x10
     6d8:	91 89       	ldd	r25, Z+17	; 0x11
     6da:	99 8b       	std	Y+17, r25	; 0x11
     6dc:	88 8b       	std	Y+16, r24	; 0x10
  dt->dig_P7 = comp_data[19] << 8 | comp_data[18];
     6de:	82 89       	ldd	r24, Z+18	; 0x12
     6e0:	93 89       	ldd	r25, Z+19	; 0x13
     6e2:	9b 8b       	std	Y+19, r25	; 0x13
     6e4:	8a 8b       	std	Y+18, r24	; 0x12
  dt->dig_P8 = comp_data[21] << 8 | comp_data[20];
     6e6:	84 89       	ldd	r24, Z+20	; 0x14
     6e8:	95 89       	ldd	r25, Z+21	; 0x15
     6ea:	9d 8b       	std	Y+21, r25	; 0x15
     6ec:	8c 8b       	std	Y+20, r24	; 0x14
  dt->dig_P9 = comp_data[23] << 8 | comp_data[22];
     6ee:	86 89       	ldd	r24, Z+22	; 0x16
     6f0:	97 89       	ldd	r25, Z+23	; 0x17
     6f2:	9f 8b       	std	Y+23, r25	; 0x17
     6f4:	8e 8b       	std	Y+22, r24	; 0x16
 dt->dig_H1 = (int8_t)comp_data[24];
     6f6:	80 8d       	ldd	r24, Z+24	; 0x18
     6f8:	88 8f       	std	Y+24, r24	; 0x18
 dt->dig_H2 = (int16_t)((comp_data[26] << 8) | comp_data[25]);
     6fa:	81 8d       	ldd	r24, Z+25	; 0x19
     6fc:	92 8d       	ldd	r25, Z+26	; 0x1a
     6fe:	9a 8f       	std	Y+26, r25	; 0x1a
     700:	89 8f       	std	Y+25, r24	; 0x19
 dt->dig_H3 = (int8_t)comp_data[27];
     702:	83 8d       	ldd	r24, Z+27	; 0x1b
     704:	8b 8f       	std	Y+27, r24	; 0x1b
 dt->dig_H4 = (int16_t)(((comp_data[28] << 4) | (comp_data[29] & 0x0F)) - 65536);
     706:	25 8d       	ldd	r18, Z+29	; 0x1d
     708:	84 8d       	ldd	r24, Z+28	; 0x1c
     70a:	30 e1       	ldi	r19, 0x10	; 16
     70c:	83 9f       	mul	r24, r19
     70e:	c0 01       	movw	r24, r0
     710:	11 24       	eor	r1, r1
     712:	32 2f       	mov	r19, r18
     714:	3f 70       	andi	r19, 0x0F	; 15
     716:	83 2b       	or	r24, r19
     718:	9d 8f       	std	Y+29, r25	; 0x1d
     71a:	8c 8f       	std	Y+28, r24	; 0x1c
 dt->dig_H5 = (int16_t)(((comp_data[30] << 4) | (comp_data[29] >> 4)) - 65536);
     71c:	86 8d       	ldd	r24, Z+30	; 0x1e
     71e:	30 e1       	ldi	r19, 0x10	; 16
     720:	83 9f       	mul	r24, r19
     722:	c0 01       	movw	r24, r0
     724:	11 24       	eor	r1, r1
     726:	22 95       	swap	r18
     728:	2f 70       	andi	r18, 0x0F	; 15
     72a:	82 2b       	or	r24, r18
     72c:	9f 8f       	std	Y+31, r25	; 0x1f
     72e:	8e 8f       	std	Y+30, r24	; 0x1e
 dt->dig_H6 = (int8_t)comp_data[31];
     730:	87 8d       	ldd	r24, Z+31	; 0x1f
     732:	88 a3       	std	Y+32, r24	; 0x20
  return SUCCESS;
}
     734:	80 e0       	ldi	r24, 0x00	; 0
     736:	df 91       	pop	r29
     738:	cf 91       	pop	r28
     73a:	08 95       	ret

0000073c <bme280_init>:
	 return SUCCESS;
}

//—ï–µ—Ä–µ–¥–∞—á–∞ –¥–∞–Ω–Ω—ã—Ö: –∞–¥—Ä–µ—Å —Ä–µ–≥–∏—Å—Ç—Ä–∞, –∑–∞—Ç–µ–º –±–∞–π—Ç –Ω–∞—Å—Ç—Ä–æ–µ–∫. —õ–æ–∂–Ω–æ –ø–∏—Å–∞—Ç—å —Å—Ä–∞–∑—É –≤–æ –≤—Å–µ —Ä–µ–≥–∏—Å—Ç—Ä—ã
uint8_t bme280_init(uint8_t hum_oversampling, uint8_t filter, uint8_t standby, uint8_t press_oversampling, uint8_t temp_oversampling, uint8_t mode)
{
     73c:	ef 92       	push	r14
     73e:	0f 93       	push	r16
     740:	1f 93       	push	r17
     742:	cf 93       	push	r28
     744:	df 93       	push	r29
     746:	cd b7       	in	r28, 0x3d	; 61
     748:	de b7       	in	r29, 0x3e	; 62
     74a:	28 97       	sbiw	r28, 0x08	; 8
     74c:	0f b6       	in	r0, 0x3f	; 63
     74e:	f8 94       	cli
     750:	de bf       	out	0x3e, r29	; 62
     752:	0f be       	out	0x3f, r0	; 63
     754:	cd bf       	out	0x3d, r28	; 61
  uint8_t  settings[6] = {CONTROL_HUM,                                                                       //–∞–¥—Ä–µ—Å —Ä–µ–≥–∏—Å—Ç—Ä–∞ –Ω–∞—Å—Ç—Ä–æ–µ–∫ –∏–∑–º–µ—Ä–µ–Ω–∏¬§ –≤–ª–∞–∂–Ω–æ—Å—Ç–∏
     756:	92 ef       	ldi	r25, 0xF2	; 242
     758:	99 83       	std	Y+1, r25	; 0x01
     75a:	8a 83       	std	Y+2, r24	; 0x02
     75c:	85 ef       	ldi	r24, 0xF5	; 245
     75e:	8b 83       	std	Y+3, r24	; 0x03
     760:	66 0f       	add	r22, r22
     762:	66 0f       	add	r22, r22
     764:	80 e2       	ldi	r24, 0x20	; 32
     766:	48 9f       	mul	r20, r24
     768:	a0 01       	movw	r20, r0
     76a:	11 24       	eor	r1, r1
     76c:	46 2b       	or	r20, r22
     76e:	4c 83       	std	Y+4, r20	; 0x04
     770:	84 ef       	ldi	r24, 0xF4	; 244
     772:	8d 83       	std	Y+5, r24	; 0x05
     774:	80 e2       	ldi	r24, 0x20	; 32
     776:	08 9f       	mul	r16, r24
     778:	80 01       	movw	r16, r0
     77a:	11 24       	eor	r1, r1
     77c:	0e 29       	or	r16, r14
     77e:	22 0f       	add	r18, r18
     780:	22 0f       	add	r18, r18
     782:	02 2b       	or	r16, r18
     784:	0e 83       	std	Y+6, r16	; 0x06
                          CONFIG,
                          SET_CONFIG(filter, standby),
                          CONTROL_MEAS,
                          SET_MEAS(press_oversampling, temp_oversampling, mode)
                         };
  if(bme280_readbyte(BME280_ADDR, ID) != DEV_NAME) {
     786:	60 ed       	ldi	r22, 0xD0	; 208
     788:	8c ee       	ldi	r24, 0xEC	; 236
     78a:	0e 94 c5 02 	call	0x58a	; 0x58a <bme280_readbyte>
     78e:	80 36       	cpi	r24, 0x60	; 96
     790:	69 f0       	breq	.+26     	; 0x7ac <bme280_init+0x70>
	   return ERROR; 
     792:	81 e0       	ldi	r24, 0x01	; 1
	} 
  bme280_reset();
  bme280_send_data(BME280_ADDR, settings, sizeof(settings) / sizeof(settings[0]));
  get_compens(&comp_bme280);
  return SUCCESS;
}
     794:	28 96       	adiw	r28, 0x08	; 8
     796:	0f b6       	in	r0, 0x3f	; 63
     798:	f8 94       	cli
     79a:	de bf       	out	0x3e, r29	; 62
     79c:	0f be       	out	0x3f, r0	; 63
     79e:	cd bf       	out	0x3d, r28	; 61
     7a0:	df 91       	pop	r29
     7a2:	cf 91       	pop	r28
     7a4:	1f 91       	pop	r17
     7a6:	0f 91       	pop	r16
     7a8:	ef 90       	pop	r14
     7aa:	08 95       	ret


void bme280_reset(void)
{
  uint8_t  reset[2] = {RESET, COMMAND_RESET};
     7ac:	84 e0       	ldi	r24, 0x04	; 4
     7ae:	8f 83       	std	Y+7, r24	; 0x07
     7b0:	86 eb       	ldi	r24, 0xB6	; 182
     7b2:	88 87       	std	Y+8, r24	; 0x08
  bme280_send_data(BME280_ADDR, reset, 2);
     7b4:	42 e0       	ldi	r20, 0x02	; 2
     7b6:	be 01       	movw	r22, r28
     7b8:	69 5f       	subi	r22, 0xF9	; 249
     7ba:	7f 4f       	sbci	r23, 0xFF	; 255
     7bc:	8c ee       	ldi	r24, 0xEC	; 236
     7be:	0e 94 9e 02 	call	0x53c	; 0x53c <bme280_send_data>
                         };
  if(bme280_readbyte(BME280_ADDR, ID) != DEV_NAME) {
	   return ERROR; 
	} 
  bme280_reset();
  bme280_send_data(BME280_ADDR, settings, sizeof(settings) / sizeof(settings[0]));
     7c2:	46 e0       	ldi	r20, 0x06	; 6
     7c4:	be 01       	movw	r22, r28
     7c6:	6f 5f       	subi	r22, 0xFF	; 255
     7c8:	7f 4f       	sbci	r23, 0xFF	; 255
     7ca:	8c ee       	ldi	r24, 0xEC	; 236
     7cc:	0e 94 9e 02 	call	0x53c	; 0x53c <bme280_send_data>
  get_compens(&comp_bme280);
     7d0:	89 e7       	ldi	r24, 0x79	; 121
     7d2:	94 e0       	ldi	r25, 0x04	; 4
     7d4:	0e 94 38 03 	call	0x670	; 0x670 <get_compens>
  return SUCCESS;
     7d8:	80 e0       	ldi	r24, 0x00	; 0
     7da:	dc cf       	rjmp	.-72     	; 0x794 <bme280_init+0x58>

000007dc <enc_ports_init>:
volatile uint8_t	adc_conv=0;  
volatile uint8_t	update_bme280_flag=0;                                                           //–ø–µ—Ä–µ–º–µ–Ω–Ω–∞—è, –∫–æ—Ç–æ—Ä—É—é –±—É–¥–µ–º —é–∑–∞—Ç—å –¥–ª—è –≤—Å—è–∫–∏—Ö –æ—Ç—Å—á–µ—Ç–æ–≤


 void enc_ports_init(void){
	 CLEAR_BIT(ENCODER_DDR,(1<<ENC_CLK)|(1<<ENC_DT)|(1<<ENC_BUTTON));								//–Ω–∞ –≤—Ö–æ–¥ –Ω–æ–∂–∫–∏ —ç–Ω–∫–æ–¥–µ—Ä–∞ –∏ –∫–Ω–æ–ø–∫–∞ —ç–Ω–∫–æ–¥–µ—Ä–∞
     7dc:	8a b1       	in	r24, 0x0a	; 10
     7de:	83 7e       	andi	r24, 0xE3	; 227
     7e0:	8a b9       	out	0x0a, r24	; 10
	 SET_BIT(ENCODER_PORT,(1<<ENC_BUTTON));															//–ø–æ–¥—Ç—è–∂–∫–∞ —ç–Ω–∫–æ–¥–µ—Ä–∞ –∏ –∫–Ω–æ–ø–∫–∏ —ç–Ω–∫–æ–¥–µ—Ä–∞
     7e2:	5c 9a       	sbi	0x0b, 4	; 11
	 
	 CLEAR_BIT(BUTTON_DDR,(1<<BUTTON));
     7e4:	57 98       	cbi	0x0a, 7	; 10
	 SET_BIT(BUTTON_PORT,(1<<BUTTON));
     7e6:	5f 9a       	sbi	0x0b, 7	; 11
     7e8:	08 95       	ret

000007ea <timer0_init>:
}

 /*–∏–Ω–∏—Ü–∏–∞–ª–∏–∑–∞—Ü–∏—è –∫–∞–Ω–∞–ª–∞ –ê —Ç–∞–π–º–µ—Ä–∞ 0*/
 void timer0_init(){ 
	 encoder_state|=(1<<ENC_DT)|(1<<ENC_CLK);
     7ea:	80 91 a3 04 	lds	r24, 0x04A3	; 0x8004a3 <encoder_state>
     7ee:	8c 60       	ori	r24, 0x0C	; 12
     7f0:	80 93 a3 04 	sts	0x04A3, r24	; 0x8004a3 <encoder_state>
	 TCNT0=0;																						//–Ω–∞ –≤—Å—è–∫–∏–π —Å–ª—É—á–∞–π –ø–∏—à–µ–º –≤ —Å—á–µ—Ç–Ω—ã–π —Ä–µ–≥–∏—Å—Ç—Ä 0
     7f4:	16 bc       	out	0x26, r1	; 38
	 SET_BIT(TCCR0A,(1<<WGM01));																	//—Å–±—Ä–æ—Å –∑–Ω–∞—á–µ–Ω–∏—è –≤  —Å—á–µ—Ç–Ω–æ–º —Ä–µ–≥–∏—Å—Ç—Ä–µ –ø—Ä–∏ —Å–æ–≤–ø–∞–¥–µ–Ω–∏–∏ —Å–æ –∑–Ω–∞—á–µ–Ω–∏–µ–º –≤ —Ä–µ–≥–∏—Å—Ç—Ä–µ —Å—Ä–∞–≤–Ω–µ–Ω–∏—è 
     7f6:	84 b5       	in	r24, 0x24	; 36
     7f8:	82 60       	ori	r24, 0x02	; 2
     7fa:	84 bd       	out	0x24, r24	; 36
	 SET_BIT(TCCR0B,(1<<CS02|1<<CS00));																//–¥–µ–ª–∏—Ç–µ–ª—å 1024; 16000000/1024=15625 —Ç–∏–∫–æ–≤ –≤ —Å–µ–∫—É–Ω–¥—É
     7fc:	85 b5       	in	r24, 0x25	; 37
     7fe:	85 60       	ori	r24, 0x05	; 5
     800:	85 bd       	out	0x25, r24	; 37
	 OCR0A=61;																						// 15625/61=256, –≥–¥–µ 256 - —á–∞—Å—Ç–æ—Ç–∞ –æ–ø—Ä–æ—Å–∞(–≤–æ–∑–Ω–∏–∫–Ω–æ–≤–µ–Ω–∏—è –ø—Ä–µ—Ä—ã–≤–∞–Ω–∏—è –ø—Ä–∏ —Å–æ–≤–ø–∞–¥–µ–Ω–∏–∏)
     802:	8d e3       	ldi	r24, 0x3D	; 61
     804:	87 bd       	out	0x27, r24	; 39
	SET_BIT(TIMSK0,(1<<OCIE0A));																	//—Ä–∞–∑—Ä–µ—à–∞–µ–º –ø—Ä–µ—Ä—ã–≤–∞–Ω–∏—è –ø—Ä–∏ —Å–æ–≤–ø–∞–¥–µ–Ω–∏–∏
     806:	ee e6       	ldi	r30, 0x6E	; 110
     808:	f0 e0       	ldi	r31, 0x00	; 0
     80a:	80 81       	ld	r24, Z
     80c:	82 60       	ori	r24, 0x02	; 2
     80e:	80 83       	st	Z, r24
     810:	08 95       	ret

00000812 <__vector_14>:
 }
 
 ISR(TIMER0_COMPA_vect){
     812:	1f 92       	push	r1
     814:	0f 92       	push	r0
     816:	0f b6       	in	r0, 0x3f	; 63
     818:	0f 92       	push	r0
     81a:	11 24       	eor	r1, r1
     81c:	8f 93       	push	r24
     81e:	9f 93       	push	r25
	static uint8_t count_enc_but = 0;																//—Å—á–µ—Ç—á–∏–∫–∏
    static uint8_t count_but = 0;
	newState=(ENCODER_PIN&encoder_state)>>2;
     820:	99 b1       	in	r25, 0x09	; 9
     822:	80 91 a3 04 	lds	r24, 0x04A3	; 0x8004a3 <encoder_state>
     826:	89 23       	and	r24, r25
     828:	86 95       	lsr	r24
     82a:	86 95       	lsr	r24
     82c:	80 93 01 01 	sts	0x0101, r24	; 0x800101 <newState>
	if(newState!=oldState){
     830:	90 91 01 01 	lds	r25, 0x0101	; 0x800101 <newState>
     834:	80 91 00 01 	lds	r24, 0x0100	; 0x800100 <__DATA_REGION_ORIGIN__>
     838:	98 17       	cp	r25, r24
     83a:	d1 f0       	breq	.+52     	; 0x870 <__vector_14+0x5e>
		switch(oldState){
     83c:	80 91 00 01 	lds	r24, 0x0100	; 0x800100 <__DATA_REGION_ORIGIN__>
     840:	81 30       	cpi	r24, 0x01	; 1
     842:	09 f4       	brne	.+2      	; 0x846 <__vector_14+0x34>
     844:	9d c0       	rjmp	.+314    	; 0x980 <__stack+0x81>
     846:	08 f4       	brcc	.+2      	; 0x84a <__vector_14+0x38>
     848:	6e c0       	rjmp	.+220    	; 0x926 <__stack+0x27>
     84a:	82 30       	cpi	r24, 0x02	; 2
     84c:	09 f4       	brne	.+2      	; 0x850 <__vector_14+0x3e>
     84e:	8f c0       	rjmp	.+286    	; 0x96e <__stack+0x6f>
     850:	83 30       	cpi	r24, 0x03	; 3
     852:	51 f4       	brne	.+20     	; 0x868 <__vector_14+0x56>
			 case 2:
				if(newState == 3) upState++;
				if(newState == 0) downState++;
				break;
			 case 3:
				if(newState == 1) upState++;
     854:	80 91 01 01 	lds	r24, 0x0101	; 0x800101 <newState>
     858:	81 30       	cpi	r24, 0x01	; 1
     85a:	09 f4       	brne	.+2      	; 0x85e <__vector_14+0x4c>
     85c:	a3 c0       	rjmp	.+326    	; 0x9a4 <__stack+0xa5>
				if(newState == 2) downState++;
     85e:	80 91 01 01 	lds	r24, 0x0101	; 0x800101 <newState>
     862:	82 30       	cpi	r24, 0x02	; 2
     864:	09 f4       	brne	.+2      	; 0x868 <__vector_14+0x56>
     866:	69 c0       	rjmp	.+210    	; 0x93a <__stack+0x3b>
				break;
			 
		 }
		 oldState=newState;
     868:	80 91 01 01 	lds	r24, 0x0101	; 0x800101 <newState>
     86c:	80 93 00 01 	sts	0x0100, r24	; 0x800100 <__DATA_REGION_ORIGIN__>
	 }
	//–æ–±—Ä–∞–±–æ—Ç–∫–∞ –∫–Ω–æ–ø–∫–∏ —ç–Ω–∫–æ–¥–µ—Ä–∞
	 if(!READ_BIT(ENCODER_PIN,(1<<ENC_BUTTON))){										
     870:	4c 9b       	sbis	0x09, 4	; 9
     872:	3c c0       	rjmp	.+120    	; 0x8ec <__vector_14+0xda>
     874:	80 91 9f 04 	lds	r24, 0x049F	; 0x80049f <count_enc_but.1668>
		if(count_enc_but < 255) {
		 count_enc_but++;
		}
	}
	  if(count_enc_but>LONG_TIMEOUT ) {																//–¥–ª–∏–Ω–Ω–æ–µ –Ω–∞–∂–∞—Ç–∏–µ
     878:	85 36       	cpi	r24, 0x65	; 101
     87a:	e0 f5       	brcc	.+120    	; 0x8f4 <__vector_14+0xe2>
		 if(READ_BIT(ENCODER_PIN,(1<<ENC_BUTTON))){
			longpress_enc_but=1;
			 count_enc_but=0;
		 }
	  }
	  if(count_enc_but>0 && count_enc_but<LONG_TIMEOUT) {											//–∫–æ—Ä–æ—Ç–∫–æ–µ –Ω–∞–∂–∞—Ç–∏–µ
     87c:	81 50       	subi	r24, 0x01	; 1
     87e:	83 36       	cpi	r24, 0x63	; 99
     880:	10 f4       	brcc	.+4      	; 0x886 <__vector_14+0x74>
		  if(READ_BIT(ENCODER_PIN,(1<<ENC_BUTTON))) {
     882:	4c 99       	sbic	0x09, 4	; 9
     884:	4a c0       	rjmp	.+148    	; 0x91a <__stack+0x1b>
			  shortpress_enc_but=1;
			  count_enc_but=0;
		  }
	  }
	 //–æ–±—Ä–∞–±–æ—Ç–∫–∞ –æ—Ç–¥–µ–ª—å–Ω–æ–π –∫–Ω–æ–ø–∫–∏
	 if(!READ_BIT(BUTTON_PIN,(1<<BUTTON))){												
     886:	4f 99       	sbic	0x09, 7	; 9
     888:	3e c0       	rjmp	.+124    	; 0x906 <__stack+0x7>
		if(count_but < 255) {
     88a:	80 91 9e 04 	lds	r24, 0x049E	; 0x80049e <count_but.1669>
     88e:	8f 3f       	cpi	r24, 0xFF	; 255
     890:	29 f1       	breq	.+74     	; 0x8dc <__vector_14+0xca>
		count_but++;
     892:	8f 5f       	subi	r24, 0xFF	; 255
     894:	80 93 9e 04 	sts	0x049E, r24	; 0x80049e <count_but.1669>
		}
	}
	if(count_but>0 && count_but< LONG_TIMEOUT) {									//–∫–æ—Ä–æ—Ç–∫–æ–µ –Ω–∞–∂–∞—Ç–∏–µ
     898:	9f ef       	ldi	r25, 0xFF	; 255
     89a:	98 0f       	add	r25, r24
     89c:	93 36       	cpi	r25, 0x63	; 99
     89e:	e0 f4       	brcc	.+56     	; 0x8d8 <__vector_14+0xc6>
		if(READ_BIT(BUTTON_PIN,(1<<BUTTON))) {
     8a0:	4f 99       	sbic	0x09, 7	; 9
     8a2:	55 c0       	rjmp	.+170    	; 0x94e <__stack+0x4f>
		if(READ_BIT(BUTTON_PIN,(1<<BUTTON))){
			longpress_but=1;
			count_but=0;
		}
	}
	adc_conv++;
     8a4:	80 91 a1 04 	lds	r24, 0x04A1	; 0x8004a1 <adc_conv>
     8a8:	8f 5f       	subi	r24, 0xFF	; 255
     8aa:	80 93 a1 04 	sts	0x04A1, r24	; 0x8004a1 <adc_conv>
	//SET_BIT(ADCSRA,1<<ADIF);
	//ADCSRA |= (1 << ADSC);
	!adc_conv?adc_conv_flag=1:0;
     8ae:	80 91 a1 04 	lds	r24, 0x04A1	; 0x8004a1 <adc_conv>
     8b2:	81 11       	cpse	r24, r1
     8b4:	03 c0       	rjmp	.+6      	; 0x8bc <__vector_14+0xaa>
     8b6:	81 e0       	ldi	r24, 0x01	; 1
     8b8:	80 93 a2 04 	sts	0x04A2, r24	; 0x8004a2 <adc_conv_flag>
	adc_conv==125?update_bme280_flag=1:update_bme280_flag;
     8bc:	80 91 a1 04 	lds	r24, 0x04A1	; 0x8004a1 <adc_conv>
     8c0:	8d 37       	cpi	r24, 0x7D	; 125
     8c2:	09 f4       	brne	.+2      	; 0x8c6 <__vector_14+0xb4>
     8c4:	4a c0       	rjmp	.+148    	; 0x95a <__stack+0x5b>
     8c6:	80 91 a0 04 	lds	r24, 0x04A0	; 0x8004a0 <update_bme280_flag>
 }
     8ca:	9f 91       	pop	r25
     8cc:	8f 91       	pop	r24
     8ce:	0f 90       	pop	r0
     8d0:	0f be       	out	0x3f, r0	; 63
     8d2:	0f 90       	pop	r0
     8d4:	1f 90       	pop	r1
     8d6:	18 95       	reti
		if(READ_BIT(BUTTON_PIN,(1<<BUTTON))) {
			shortpress_but=1;
			count_but=0;
		}
	}
	if(count_but >LONG_TIMEOUT ) {													 //–¥–ª–∏–Ω–Ω–æ–µ –Ω–∞–∂–∞—Ç–∏–µ
     8d8:	85 36       	cpi	r24, 0x65	; 101
     8da:	20 f3       	brcs	.-56     	; 0x8a4 <__vector_14+0x92>
		if(READ_BIT(BUTTON_PIN,(1<<BUTTON))){
     8dc:	4f 9b       	sbis	0x09, 7	; 9
     8de:	e2 cf       	rjmp	.-60     	; 0x8a4 <__vector_14+0x92>
			longpress_but=1;
     8e0:	81 e0       	ldi	r24, 0x01	; 1
     8e2:	80 93 a6 04 	sts	0x04A6, r24	; 0x8004a6 <longpress_but>
			count_but=0;
     8e6:	10 92 9e 04 	sts	0x049E, r1	; 0x80049e <count_but.1669>
     8ea:	dc cf       	rjmp	.-72     	; 0x8a4 <__vector_14+0x92>
		 }
		 oldState=newState;
	 }
	//–æ–±—Ä–∞–±–æ—Ç–∫–∞ –∫–Ω–æ–ø–∫–∏ —ç–Ω–∫–æ–¥–µ—Ä–∞
	 if(!READ_BIT(ENCODER_PIN,(1<<ENC_BUTTON))){										
		if(count_enc_but < 255) {
     8ec:	80 91 9f 04 	lds	r24, 0x049F	; 0x80049f <count_enc_but.1668>
     8f0:	8f 3f       	cpi	r24, 0xFF	; 255
     8f2:	61 f4       	brne	.+24     	; 0x90c <__stack+0xd>
		 count_enc_but++;
		}
	}
	  if(count_enc_but>LONG_TIMEOUT ) {																//–¥–ª–∏–Ω–Ω–æ–µ –Ω–∞–∂–∞—Ç–∏–µ
		 if(READ_BIT(ENCODER_PIN,(1<<ENC_BUTTON))){
     8f4:	4c 9b       	sbis	0x09, 4	; 9
     8f6:	0e c0       	rjmp	.+28     	; 0x914 <__stack+0x15>
			longpress_enc_but=1;
     8f8:	81 e0       	ldi	r24, 0x01	; 1
     8fa:	80 93 a7 04 	sts	0x04A7, r24	; 0x8004a7 <longpress_enc_but>
			 count_enc_but=0;
     8fe:	10 92 9f 04 	sts	0x049F, r1	; 0x80049f <count_enc_but.1668>
			  shortpress_enc_but=1;
			  count_enc_but=0;
		  }
	  }
	 //–æ–±—Ä–∞–±–æ—Ç–∫–∞ –æ—Ç–¥–µ–ª—å–Ω–æ–π –∫–Ω–æ–ø–∫–∏
	 if(!READ_BIT(BUTTON_PIN,(1<<BUTTON))){												
     902:	4f 9b       	sbis	0x09, 7	; 9
     904:	c2 cf       	rjmp	.-124    	; 0x88a <__vector_14+0x78>
     906:	80 91 9e 04 	lds	r24, 0x049E	; 0x80049e <count_but.1669>
     90a:	c6 cf       	rjmp	.-116    	; 0x898 <__vector_14+0x86>
		 oldState=newState;
	 }
	//–æ–±—Ä–∞–±–æ—Ç–∫–∞ –∫–Ω–æ–ø–∫–∏ —ç–Ω–∫–æ–¥–µ—Ä–∞
	 if(!READ_BIT(ENCODER_PIN,(1<<ENC_BUTTON))){										
		if(count_enc_but < 255) {
		 count_enc_but++;
     90c:	8f 5f       	subi	r24, 0xFF	; 255
     90e:	80 93 9f 04 	sts	0x049F, r24	; 0x80049f <count_enc_but.1668>
     912:	b2 cf       	rjmp	.-156    	; 0x878 <__vector_14+0x66>
     914:	80 91 9f 04 	lds	r24, 0x049F	; 0x80049f <count_enc_but.1668>
     918:	b1 cf       	rjmp	.-158    	; 0x87c <__vector_14+0x6a>
			 count_enc_but=0;
		 }
	  }
	  if(count_enc_but>0 && count_enc_but<LONG_TIMEOUT) {											//–∫–æ—Ä–æ—Ç–∫–æ–µ –Ω–∞–∂–∞—Ç–∏–µ
		  if(READ_BIT(ENCODER_PIN,(1<<ENC_BUTTON))) {
			  shortpress_enc_but=1;
     91a:	81 e0       	ldi	r24, 0x01	; 1
     91c:	80 93 a9 04 	sts	0x04A9, r24	; 0x8004a9 <shortpress_enc_but>
			  count_enc_but=0;
     920:	10 92 9f 04 	sts	0x049F, r1	; 0x80049f <count_enc_but.1668>
     924:	b0 cf       	rjmp	.-160    	; 0x886 <__vector_14+0x74>
    static uint8_t count_but = 0;
	newState=(ENCODER_PIN&encoder_state)>>2;
	if(newState!=oldState){
		switch(oldState){
			 case 0:
				if(newState == 2) upState++;
     926:	80 91 01 01 	lds	r24, 0x0101	; 0x800101 <newState>
     92a:	82 30       	cpi	r24, 0x02	; 2
     92c:	09 f4       	brne	.+2      	; 0x930 <__stack+0x31>
     92e:	46 c0       	rjmp	.+140    	; 0x9bc <__stack+0xbd>
				if(newState == 1) downState++;
     930:	80 91 01 01 	lds	r24, 0x0101	; 0x800101 <newState>
     934:	81 30       	cpi	r24, 0x01	; 1
     936:	09 f0       	breq	.+2      	; 0x93a <__stack+0x3b>
     938:	97 cf       	rjmp	.-210    	; 0x868 <__vector_14+0x56>
				if(newState == 3) upState++;
				if(newState == 0) downState++;
				break;
			 case 3:
				if(newState == 1) upState++;
				if(newState == 2) downState++;
     93a:	80 91 a4 04 	lds	r24, 0x04A4	; 0x8004a4 <downState>
     93e:	8f 5f       	subi	r24, 0xFF	; 255
     940:	80 93 a4 04 	sts	0x04A4, r24	; 0x8004a4 <downState>
				break;
			 
		 }
		 oldState=newState;
     944:	80 91 01 01 	lds	r24, 0x0101	; 0x800101 <newState>
     948:	80 93 00 01 	sts	0x0100, r24	; 0x800100 <__DATA_REGION_ORIGIN__>
     94c:	91 cf       	rjmp	.-222    	; 0x870 <__vector_14+0x5e>
		count_but++;
		}
	}
	if(count_but>0 && count_but< LONG_TIMEOUT) {									//–∫–æ—Ä–æ—Ç–∫–æ–µ –Ω–∞–∂–∞—Ç–∏–µ
		if(READ_BIT(BUTTON_PIN,(1<<BUTTON))) {
			shortpress_but=1;
     94e:	81 e0       	ldi	r24, 0x01	; 1
     950:	80 93 a8 04 	sts	0x04A8, r24	; 0x8004a8 <shortpress_but>
			count_but=0;
     954:	10 92 9e 04 	sts	0x049E, r1	; 0x80049e <count_but.1669>
     958:	a5 cf       	rjmp	.-182    	; 0x8a4 <__vector_14+0x92>
	}
	adc_conv++;
	//SET_BIT(ADCSRA,1<<ADIF);
	//ADCSRA |= (1 << ADSC);
	!adc_conv?adc_conv_flag=1:0;
	adc_conv==125?update_bme280_flag=1:update_bme280_flag;
     95a:	81 e0       	ldi	r24, 0x01	; 1
     95c:	80 93 a0 04 	sts	0x04A0, r24	; 0x8004a0 <update_bme280_flag>
 }
     960:	9f 91       	pop	r25
     962:	8f 91       	pop	r24
     964:	0f 90       	pop	r0
     966:	0f be       	out	0x3f, r0	; 63
     968:	0f 90       	pop	r0
     96a:	1f 90       	pop	r1
     96c:	18 95       	reti
			 case 1:
				if(newState == 0) upState++;
				if(newState == 3) downState++;
				break;
			 case 2:
				if(newState == 3) upState++;
     96e:	80 91 01 01 	lds	r24, 0x0101	; 0x800101 <newState>
     972:	83 30       	cpi	r24, 0x03	; 3
     974:	e9 f0       	breq	.+58     	; 0x9b0 <__stack+0xb1>
				if(newState == 0) downState++;
     976:	80 91 01 01 	lds	r24, 0x0101	; 0x800101 <newState>
     97a:	81 11       	cpse	r24, r1
     97c:	75 cf       	rjmp	.-278    	; 0x868 <__vector_14+0x56>
     97e:	dd cf       	rjmp	.-70     	; 0x93a <__stack+0x3b>
			 case 0:
				if(newState == 2) upState++;
				if(newState == 1) downState++;
				break;
			 case 1:
				if(newState == 0) upState++;
     980:	80 91 01 01 	lds	r24, 0x0101	; 0x800101 <newState>
     984:	81 11       	cpse	r24, r1
     986:	05 c0       	rjmp	.+10     	; 0x992 <__stack+0x93>
     988:	80 91 a5 04 	lds	r24, 0x04A5	; 0x8004a5 <upState>
     98c:	8f 5f       	subi	r24, 0xFF	; 255
     98e:	80 93 a5 04 	sts	0x04A5, r24	; 0x8004a5 <upState>
				if(newState == 3) downState++;
     992:	80 91 01 01 	lds	r24, 0x0101	; 0x800101 <newState>
     996:	83 30       	cpi	r24, 0x03	; 3
     998:	81 f2       	breq	.-96     	; 0x93a <__stack+0x3b>
				if(newState == 1) upState++;
				if(newState == 2) downState++;
				break;
			 
		 }
		 oldState=newState;
     99a:	80 91 01 01 	lds	r24, 0x0101	; 0x800101 <newState>
     99e:	80 93 00 01 	sts	0x0100, r24	; 0x800100 <__DATA_REGION_ORIGIN__>
     9a2:	66 cf       	rjmp	.-308    	; 0x870 <__vector_14+0x5e>
			 case 2:
				if(newState == 3) upState++;
				if(newState == 0) downState++;
				break;
			 case 3:
				if(newState == 1) upState++;
     9a4:	80 91 a5 04 	lds	r24, 0x04A5	; 0x8004a5 <upState>
     9a8:	8f 5f       	subi	r24, 0xFF	; 255
     9aa:	80 93 a5 04 	sts	0x04A5, r24	; 0x8004a5 <upState>
     9ae:	57 cf       	rjmp	.-338    	; 0x85e <__vector_14+0x4c>
			 case 1:
				if(newState == 0) upState++;
				if(newState == 3) downState++;
				break;
			 case 2:
				if(newState == 3) upState++;
     9b0:	80 91 a5 04 	lds	r24, 0x04A5	; 0x8004a5 <upState>
     9b4:	8f 5f       	subi	r24, 0xFF	; 255
     9b6:	80 93 a5 04 	sts	0x04A5, r24	; 0x8004a5 <upState>
     9ba:	dd cf       	rjmp	.-70     	; 0x976 <__stack+0x77>
    static uint8_t count_but = 0;
	newState=(ENCODER_PIN&encoder_state)>>2;
	if(newState!=oldState){
		switch(oldState){
			 case 0:
				if(newState == 2) upState++;
     9bc:	80 91 a5 04 	lds	r24, 0x04A5	; 0x8004a5 <upState>
     9c0:	8f 5f       	subi	r24, 0xFF	; 255
     9c2:	80 93 a5 04 	sts	0x04A5, r24	; 0x8004a5 <upState>
     9c6:	b4 cf       	rjmp	.-152    	; 0x930 <__stack+0x31>

000009c8 <readButtonState>:
	!adc_conv?adc_conv_flag=1:0;
	adc_conv==125?update_bme280_flag=1:update_bme280_flag;
 }
 
 uint8_t readButtonState(void){
	 if(shortpress_enc_but){
     9c8:	80 91 a9 04 	lds	r24, 0x04A9	; 0x8004a9 <shortpress_enc_but>
     9cc:	88 23       	and	r24, r24
     9ce:	11 f0       	breq	.+4      	; 0x9d4 <readButtonState+0xc>
		 return BUTTON_SELECT;
     9d0:	84 e0       	ldi	r24, 0x04	; 4
     9d2:	08 95       	ret
	 }else
		if(shortpress_but){
     9d4:	80 91 a8 04 	lds	r24, 0x04A8	; 0x8004a8 <shortpress_but>
     9d8:	81 11       	cpse	r24, r1
     9da:	0b c0       	rjmp	.+22     	; 0x9f2 <readButtonState+0x2a>
			return BUTTON_UP;
	 }else
		if(longpress_but){
     9dc:	80 91 a6 04 	lds	r24, 0x04A6	; 0x8004a6 <longpress_but>
     9e0:	88 23       	and	r24, r24
     9e2:	11 f0       	breq	.+4      	; 0x9e8 <readButtonState+0x20>
			return BUTTON_DOWN;
     9e4:	82 e0       	ldi	r24, 0x02	; 2
     9e6:	08 95       	ret
	 }else
		if(downState>=2){
     9e8:	90 91 a4 04 	lds	r25, 0x04A4	; 0x8004a4 <downState>
     9ec:	92 30       	cpi	r25, 0x02	; 2
     9ee:	18 f0       	brcs	.+6      	; 0x9f6 <readButtonState+0x2e>
	 }else
		if(longpress_enc_but){
			return BUTTON_MENUITEMBACK;
	 }
	 return BUTTON_NOTHING;
 }
     9f0:	08 95       	ret
 uint8_t readButtonState(void){
	 if(shortpress_enc_but){
		 return BUTTON_SELECT;
	 }else
		if(shortpress_but){
			return BUTTON_UP;
     9f2:	81 e0       	ldi	r24, 0x01	; 1
     9f4:	08 95       	ret
	 }else
		if(downState>=2){
			return ENC_LEFT;
	 }
	 else
		if(upState>=2){
     9f6:	80 91 a5 04 	lds	r24, 0x04A5	; 0x8004a5 <upState>
     9fa:	82 30       	cpi	r24, 0x02	; 2
     9fc:	10 f0       	brcs	.+4      	; 0xa02 <readButtonState+0x3a>
			return ENC_RIGHT;
     9fe:	83 e0       	ldi	r24, 0x03	; 3
     a00:	08 95       	ret
	 }else
		if(longpress_enc_but){
     a02:	80 91 a7 04 	lds	r24, 0x04A7	; 0x8004a7 <longpress_enc_but>
     a06:	81 11       	cpse	r24, r1
     a08:	02 c0       	rjmp	.+4      	; 0xa0e <readButtonState+0x46>
			return BUTTON_MENUITEMBACK;
	 }
	 return BUTTON_NOTHING;
     a0a:	8f ef       	ldi	r24, 0xFF	; 255
     a0c:	08 95       	ret
	 else
		if(upState>=2){
			return ENC_RIGHT;
	 }else
		if(longpress_enc_but){
			return BUTTON_MENUITEMBACK;
     a0e:	85 e0       	ldi	r24, 0x05	; 5
	 }
	 return BUTTON_NOTHING;
 }
     a10:	08 95       	ret

00000a12 <resetButton>:

 void resetButton(void){
	 switch(readButtonState()){
     a12:	0e 94 e4 04 	call	0x9c8	; 0x9c8 <readButtonState>
     a16:	82 30       	cpi	r24, 0x02	; 2
     a18:	a9 f0       	breq	.+42     	; 0xa44 <resetButton+0x32>
     a1a:	40 f0       	brcs	.+16     	; 0xa2c <resetButton+0x1a>
     a1c:	84 30       	cpi	r24, 0x04	; 4
     a1e:	69 f0       	breq	.+26     	; 0xa3a <resetButton+0x28>
     a20:	a0 f0       	brcs	.+40     	; 0xa4a <resetButton+0x38>
     a22:	85 30       	cpi	r24, 0x05	; 5
     a24:	69 f4       	brne	.+26     	; 0xa40 <resetButton+0x2e>
		 case ENC_RIGHT :
			upState=0;
			downState=0;
			break;
		 case BUTTON_MENUITEMBACK:
			longpress_enc_but=0;
     a26:	10 92 a7 04 	sts	0x04A7, r1	; 0x8004a7 <longpress_enc_but>
     a2a:	08 95       	ret
	 }
	 return BUTTON_NOTHING;
 }

 void resetButton(void){
	 switch(readButtonState()){
     a2c:	88 23       	and	r24, r24
     a2e:	91 f0       	breq	.+36     	; 0xa54 <resetButton+0x42>
     a30:	81 30       	cpi	r24, 0x01	; 1
     a32:	39 f4       	brne	.+14     	; 0xa42 <resetButton+0x30>
		 case BUTTON_SELECT:
			shortpress_enc_but=0;
			break;
		 case BUTTON_UP :
			shortpress_but=0;
     a34:	10 92 a8 04 	sts	0x04A8, r1	; 0x8004a8 <shortpress_but>
			break;
     a38:	08 95       	ret
 }

 void resetButton(void){
	 switch(readButtonState()){
		 case BUTTON_SELECT:
			shortpress_enc_but=0;
     a3a:	10 92 a9 04 	sts	0x04A9, r1	; 0x8004a9 <shortpress_enc_but>
			break;
     a3e:	08 95       	ret
     a40:	08 95       	ret
     a42:	08 95       	ret
		 case BUTTON_UP :
			shortpress_but=0;
			break;
		 case BUTTON_DOWN:
			longpress_but=0;
     a44:	10 92 a6 04 	sts	0x04A6, r1	; 0x8004a6 <longpress_but>
			break;
     a48:	08 95       	ret
		 case ENC_LEFT :
			downState=0;
			upState=0;
			 break;
		 case ENC_RIGHT :
			upState=0;
     a4a:	10 92 a5 04 	sts	0x04A5, r1	; 0x8004a5 <upState>
			downState=0;
     a4e:	10 92 a4 04 	sts	0x04A4, r1	; 0x8004a4 <downState>
			break;
     a52:	08 95       	ret
			break;
		 case BUTTON_DOWN:
			longpress_but=0;
			break;
		 case ENC_LEFT :
			downState=0;
     a54:	10 92 a4 04 	sts	0x04A4, r1	; 0x8004a4 <downState>
			upState=0;
     a58:	10 92 a5 04 	sts	0x04A5, r1	; 0x8004a5 <upState>
			 break;
     a5c:	08 95       	ret

00000a5e <hardware_init>:
	  if(enc-prev_enc>0){
		print_string("clockwise ");
		print_number(enc);
		print_string("\r\n");
	  } else if(enc-prev_enc<0){
		   print_string("counterclockwise ");
     a5e:	ef 92       	push	r14
     a60:	0f 93       	push	r16
     a62:	0e 94 ee 03 	call	0x7dc	; 0x7dc <enc_ports_init>
     a66:	0e 94 f5 03 	call	0x7ea	; 0x7ea <timer0_init>
     a6a:	0e 94 ca 09 	call	0x1394	; 0x1394 <st7735_ports_init>
     a6e:	0e 94 b8 09 	call	0x1370	; 0x1370 <spi_master_init>
     a72:	0e 94 fe 09 	call	0x13fc	; 0x13fc <st7735_init>
     a76:	80 e0       	ldi	r24, 0x00	; 0
     a78:	90 e0       	ldi	r25, 0x00	; 0
     a7a:	0e 94 2d 0b 	call	0x165a	; 0x165a <background>
     a7e:	0e 94 91 0c 	call	0x1922	; 0x1922 <uart_init>
     a82:	0e 94 52 02 	call	0x4a4	; 0x4a4 <ADC_init>
     a86:	0e 94 b5 05 	call	0xb6a	; 0xb6a <i2c_init>
     a8a:	83 e0       	ldi	r24, 0x03	; 3
     a8c:	e8 2e       	mov	r14, r24
     a8e:	01 e0       	ldi	r16, 0x01	; 1
     a90:	21 e0       	ldi	r18, 0x01	; 1
     a92:	45 e0       	ldi	r20, 0x05	; 5
     a94:	60 e0       	ldi	r22, 0x00	; 0
     a96:	81 e0       	ldi	r24, 0x01	; 1
     a98:	0e 94 9e 03 	call	0x73c	; 0x73c <bme280_init>
     a9c:	0e 94 7b 09 	call	0x12f6	; 0x12f6 <tim1A_init>
     aa0:	82 e3       	ldi	r24, 0x32	; 50
     aa2:	0e 94 94 09 	call	0x1328	; 0x1328 <pwm1A_start>
     aa6:	0f 91       	pop	r16
     aa8:	ef 90       	pop	r14
     aaa:	0c 94 6c 09 	jmp	0x12d8	; 0x12d8 <mpu6050_init>

00000aae <enc_process>:
	   		}
	 prev_enc=enc;	
}

void enc_process(void){
	switch(readButtonState()){
     aae:	0e 94 e4 04 	call	0x9c8	; 0x9c8 <readButtonState>
     ab2:	82 30       	cpi	r24, 0x02	; 2
     ab4:	f1 f0       	breq	.+60     	; 0xaf2 <enc_process+0x44>
     ab6:	f8 f0       	brcs	.+62     	; 0xaf6 <enc_process+0x48>
     ab8:	84 30       	cpi	r24, 0x04	; 4
     aba:	69 f0       	breq	.+26     	; 0xad6 <enc_process+0x28>
     abc:	30 f1       	brcs	.+76     	; 0xb0a <enc_process+0x5c>
     abe:	85 30       	cpi	r24, 0x05	; 5
     ac0:	f1 f4       	brne	.+60     	; 0xafe <enc_process+0x50>
				case BUTTON_DOWN:
					resetButton();
					break ;
					
				case BUTTON_MENUITEMBACK:
					enter_upmenu();	
     ac2:	0e 94 15 09 	call	0x122a	; 0x122a <enter_upmenu>
					display_pointer(pointer);	
     ac6:	80 91 02 01 	lds	r24, 0x0102	; 0x800102 <pointer>
     aca:	90 91 03 01 	lds	r25, 0x0103	; 0x800103 <pointer+0x1>
     ace:	0e 94 43 08 	call	0x1086	; 0x1086 <display_pointer>
					resetButton();
     ad2:	0c 94 09 05 	jmp	0xa12	; 0xa12 <resetButton>
					break ;
				
				case BUTTON_SELECT:
					execute_menu_action();											//–∑–∞–ø—É—Å–∫ –æ–±—Ä–∞–±–æ—Ç—á–∏–∫–∞ —Ñ—É–Ω–∫—Ü–∏–∏ 
     ad6:	0e 94 49 09 	call	0x1292	; 0x1292 <execute_menu_action>
					enter_submenu();												//–≤ current_menu –∞–¥—Ä–µ—Å –¥–æ—á–µ—Ä–Ω–µ–≥–æ –ø—É–Ω–∫—Ç–∞ –º–µ–Ω—é
     ada:	0e 94 31 09 	call	0x1262	; 0x1262 <enter_submenu>
					display_current_menu(X_MENU_OFFSET,Y_MENU_OFFSET);
     ade:	60 e0       	ldi	r22, 0x00	; 0
     ae0:	84 e1       	ldi	r24, 0x14	; 20
     ae2:	0e 94 69 08 	call	0x10d2	; 0x10d2 <display_current_menu>
					display_pointer(pointer);
     ae6:	80 91 02 01 	lds	r24, 0x0102	; 0x800102 <pointer>
     aea:	90 91 03 01 	lds	r25, 0x0103	; 0x800103 <pointer+0x1>
     aee:	0e 94 43 08 	call	0x1086	; 0x1086 <display_pointer>
					resetButton();
     af2:	0c 94 09 05 	jmp	0xa12	; 0xa12 <resetButton>
	   		}
	 prev_enc=enc;	
}

void enc_process(void){
	switch(readButtonState()){
     af6:	88 23       	and	r24, r24
     af8:	39 f1       	breq	.+78     	; 0xb48 <enc_process+0x9a>
     afa:	81 30       	cpi	r24, 0x01	; 1
     afc:	d1 f3       	breq	.-12     	; 0xaf2 <enc_process+0x44>
					display_pointer(pointer);
					resetButton();
					break ;
				
				default:
					display_pointer(pointer);
     afe:	80 91 02 01 	lds	r24, 0x0102	; 0x800102 <pointer>
     b02:	90 91 03 01 	lds	r25, 0x0103	; 0x800103 <pointer+0x1>
     b06:	0c 94 43 08 	jmp	0x1086	; 0x1086 <display_pointer>
					display_pointer(pointer);
					resetButton();
					break ;
				
				case ENC_RIGHT:
					pwm_value++;
     b0a:	80 91 20 01 	lds	r24, 0x0120	; 0x800120 <pwm_value>
     b0e:	8f 5f       	subi	r24, 0xFF	; 255
     b10:	80 93 20 01 	sts	0x0120, r24	; 0x800120 <pwm_value>
					enc++;
     b14:	80 91 b9 04 	lds	r24, 0x04B9	; 0x8004b9 <enc>
     b18:	8f 5f       	subi	r24, 0xFF	; 255
     b1a:	80 93 b9 04 	sts	0x04B9, r24	; 0x8004b9 <enc>
					current_menu = current_menu->next;
     b1e:	e0 91 b6 04 	lds	r30, 0x04B6	; 0x8004b6 <current_menu>
     b22:	f0 91 b7 04 	lds	r31, 0x04B7	; 0x8004b7 <current_menu+0x1>
     b26:	87 81       	ldd	r24, Z+7	; 0x07
     b28:	90 85       	ldd	r25, Z+8	; 0x08
     b2a:	90 93 b7 04 	sts	0x04B7, r25	; 0x8004b7 <current_menu+0x1>
     b2e:	80 93 b6 04 	sts	0x04B6, r24	; 0x8004b6 <current_menu>
					pointer_clear_flag=1;
     b32:	81 e0       	ldi	r24, 0x01	; 1
     b34:	80 93 b8 04 	sts	0x04B8, r24	; 0x8004b8 <pointer_clear_flag>
					display_pointer(pointer);
     b38:	80 91 02 01 	lds	r24, 0x0102	; 0x800102 <pointer>
     b3c:	90 91 03 01 	lds	r25, 0x0103	; 0x800103 <pointer+0x1>
     b40:	0e 94 43 08 	call	0x1086	; 0x1086 <display_pointer>
					resetButton();
     b44:	0c 94 09 05 	jmp	0xa12	; 0xa12 <resetButton>
}

void enc_process(void){
	switch(readButtonState()){
				case ENC_LEFT:
					pwm_value--;
     b48:	80 91 20 01 	lds	r24, 0x0120	; 0x800120 <pwm_value>
     b4c:	81 50       	subi	r24, 0x01	; 1
     b4e:	80 93 20 01 	sts	0x0120, r24	; 0x800120 <pwm_value>
					enc--;
     b52:	80 91 b9 04 	lds	r24, 0x04B9	; 0x8004b9 <enc>
     b56:	81 50       	subi	r24, 0x01	; 1
     b58:	80 93 b9 04 	sts	0x04B9, r24	; 0x8004b9 <enc>
					current_menu = current_menu->prev;
     b5c:	e0 91 b6 04 	lds	r30, 0x04B6	; 0x8004b6 <current_menu>
     b60:	f0 91 b7 04 	lds	r31, 0x04B7	; 0x8004b7 <current_menu+0x1>
     b64:	85 81       	ldd	r24, Z+5	; 0x05
     b66:	96 81       	ldd	r25, Z+6	; 0x06
     b68:	e0 cf       	rjmp	.-64     	; 0xb2a <enc_process+0x7c>

00000b6a <i2c_init>:
#include "i2c.h"

uint8_t scanned_addr[10]={0,};

void i2c_init(void){
	WRITE_REG(TWBR, F_CPU/F_I2C/2 - 8);
     b6a:	8c e0       	ldi	r24, 0x0C	; 12
     b6c:	80 93 b8 00 	sts	0x00B8, r24	; 0x8000b8 <__TEXT_REGION_LENGTH__+0x7f80b8>
     b70:	08 95       	ret

00000b72 <start_cond>:
}

uint8_t start_cond(void){
	uint8_t status=0;
	SET_BIT(TWCR,(1<<TWINT)|(1<<TWSTA)|(1<<TWEN));									//—É—Å–ª–æ–≤–∏–µ —Å—Ç–∞—Ä—Ç–∞
     b72:	80 91 bc 00 	lds	r24, 0x00BC	; 0x8000bc <__TEXT_REGION_LENGTH__+0x7f80bc>
     b76:	84 6a       	ori	r24, 0xA4	; 164
     b78:	80 93 bc 00 	sts	0x00BC, r24	; 0x8000bc <__TEXT_REGION_LENGTH__+0x7f80bc>
	while(!READ_BIT(TWCR,(1<<TWINT))){												//–æ–∂–∏–¥–∞–µ–º —É—Å—Ç–∞–Ω–æ–≤–∫–∏ —Ñ–ª–∞–≥–∞ TWINT, —á—Ç–æ –±—É–¥–µ—Ç –æ–∑–Ω–∞—á–∞—Ç—å –Ω–∞—á–∞–ª–æ –ø–µ—Ä–µ–¥–∞—á–∏
     b7c:	80 91 bc 00 	lds	r24, 0x00BC	; 0x8000bc <__TEXT_REGION_LENGTH__+0x7f80bc>
     b80:	87 ff       	sbrs	r24, 7
     b82:	fc cf       	rjmp	.-8      	; 0xb7c <start_cond+0xa>
		//	 while_delay=adc_conv;
		//	if(adc_conv-while_delay>30) return START_ERROR;                         //–µ—Å–ª–∏ –≤–æ –≤—Ä–µ–º—è –æ–∂–∏–¥–∞–Ω–∏—è –ø—Ä–µ–≤—ã—à–µ–Ω–æ –≤—Ä–µ–º—è, —Ç–æ –≤—ã—Ö–æ–¥–∏–º –∏–∑ —Ñ—É–Ω–∫—Ü–∏–∏(—á—Ç–æ–±—ã –Ω–µ –≤–∏—Å–ª–æ)
	};
	status=TWSR&0xF8;
     b84:	80 91 b9 00 	lds	r24, 0x00B9	; 0x8000b9 <__TEXT_REGION_LENGTH__+0x7f80b9>
     b88:	88 7f       	andi	r24, 0xF8	; 248
	if ((status == 0x08)|(status == 0x10))											//–ø—Ä–æ–≤–µ—Ä–∫–∞ –±–∏—Ç–æ–≤ —Å—Ç–∞—Ä—Ç–∞ –∏–ª–∏ —Ä–µ—Å—Ç–∞—Ä—Ç–∞ —Ä–µ–≥–∏—Å—Ç—Ä–∞ —Å—Ç–∞—Ç—É—Å–∞ TWSR
     b8a:	88 30       	cpi	r24, 0x08	; 8
     b8c:	21 f0       	breq	.+8      	; 0xb96 <start_cond+0x24>
     b8e:	80 31       	cpi	r24, 0x10	; 16
     b90:	11 f0       	breq	.+4      	; 0xb96 <start_cond+0x24>
	return START_ERROR;
	else
	return SUCCESS;
     b92:	80 e0       	ldi	r24, 0x00	; 0
     b94:	08 95       	ret
		//	 while_delay=adc_conv;
		//	if(adc_conv-while_delay>30) return START_ERROR;                         //–µ—Å–ª–∏ –≤–æ –≤—Ä–µ–º—è –æ–∂–∏–¥–∞–Ω–∏—è –ø—Ä–µ–≤—ã—à–µ–Ω–æ –≤—Ä–µ–º—è, —Ç–æ –≤—ã—Ö–æ–¥–∏–º –∏–∑ —Ñ—É–Ω–∫—Ü–∏–∏(—á—Ç–æ–±—ã –Ω–µ –≤–∏—Å–ª–æ)
	};
	status=TWSR&0xF8;
	if ((status == 0x08)|(status == 0x10))											//–ø—Ä–æ–≤–µ—Ä–∫–∞ –±–∏—Ç–æ–≤ —Å—Ç–∞—Ä—Ç–∞ –∏–ª–∏ —Ä–µ—Å—Ç–∞—Ä—Ç–∞ —Ä–µ–≥–∏—Å—Ç—Ä–∞ —Å—Ç–∞—Ç—É—Å–∞ TWSR
	return START_ERROR;
     b96:	82 e0       	ldi	r24, 0x02	; 2
	else
	return SUCCESS;
	
}
     b98:	08 95       	ret

00000b9a <i2c_sendbyte>:

uint8_t i2c_sendbyte(uint8_t byte){
	WRITE_REG(TWDR,byte);
     b9a:	80 93 bb 00 	sts	0x00BB, r24	; 0x8000bb <__TEXT_REGION_LENGTH__+0x7f80bb>
	WRITE_REG(TWCR,(1<<TWINT) | (1<<TWEN));											//–∑–∞–ø—É—Å–∫–∞–µ–º –ø–µ—Ä–µ–¥–∞—á—É
     b9e:	84 e8       	ldi	r24, 0x84	; 132
     ba0:	80 93 bc 00 	sts	0x00BC, r24	; 0x8000bc <__TEXT_REGION_LENGTH__+0x7f80bc>
	while(!READ_BIT(TWCR,(1<<TWINT))){												//–æ–∂–∏–¥–∞–µ–º —É—Å—Ç–∞–Ω–æ–≤–∫–∏ —Ñ–ª–∞–≥–∞ TWINT, —á—Ç–æ –±—É–¥–µ—Ç –æ–∑–Ω–∞—á–∞—Ç—å –Ω–∞—á–∞–ª–æ –ø–µ—Ä–µ–¥–∞—á–∏
     ba4:	80 91 bc 00 	lds	r24, 0x00BC	; 0x8000bc <__TEXT_REGION_LENGTH__+0x7f80bc>
     ba8:	87 ff       	sbrs	r24, 7
     baa:	fc cf       	rjmp	.-8      	; 0xba4 <i2c_sendbyte+0xa>
		//	 while_delay=adc_conv;
		//	if(adc_conv-while_delay>30) return SEND_ERROR;
	};
	uint8_t status = TWSR & 0xF8;													// –°—á–∏—Ç—ã–≤–∞–Ω–∏–µ –∫–æ–¥–∞ —Å—Ç–∞—Ç—É—Å–∞
     bac:	80 91 b9 00 	lds	r24, 0x00B9	; 0x8000b9 <__TEXT_REGION_LENGTH__+0x7f80b9>
     bb0:	88 7f       	andi	r24, 0xF8	; 248
	if ((status == 0x18) | (status == 0x28) | (status == 0x40))						// –ø—Ä–æ–≤–µ—Ä–∫–∞ –∫–æ–¥–∞ —Å—Ç–∞—Ç—É—Å–∞ (–ø–µ—Ä–µ–¥–∞—á–∞ SLA+W, –ø–∞–∫–µ—Ç–∞ –¥–∞–Ω–Ω—ã—Ö, SLA+R)
     bb2:	21 e0       	ldi	r18, 0x01	; 1
     bb4:	88 31       	cpi	r24, 0x18	; 24
     bb6:	09 f0       	breq	.+2      	; 0xbba <i2c_sendbyte+0x20>
     bb8:	20 e0       	ldi	r18, 0x00	; 0
     bba:	91 e0       	ldi	r25, 0x01	; 1
     bbc:	88 32       	cpi	r24, 0x28	; 40
     bbe:	09 f0       	breq	.+2      	; 0xbc2 <i2c_sendbyte+0x28>
     bc0:	90 e0       	ldi	r25, 0x00	; 0
     bc2:	92 2b       	or	r25, r18
     bc4:	21 f4       	brne	.+8      	; 0xbce <i2c_sendbyte+0x34>
     bc6:	80 34       	cpi	r24, 0x40	; 64
     bc8:	11 f0       	breq	.+4      	; 0xbce <i2c_sendbyte+0x34>
	return ACK;
	else
	return NACK;
     bca:	85 e0       	ldi	r24, 0x05	; 5
     bcc:	08 95       	ret
		//	 while_delay=adc_conv;
		//	if(adc_conv-while_delay>30) return SEND_ERROR;
	};
	uint8_t status = TWSR & 0xF8;													// –°—á–∏—Ç—ã–≤–∞–Ω–∏–µ –∫–æ–¥–∞ —Å—Ç–∞—Ç—É—Å–∞
	if ((status == 0x18) | (status == 0x28) | (status == 0x40))						// –ø—Ä–æ–≤–µ—Ä–∫–∞ –∫–æ–¥–∞ —Å—Ç–∞—Ç—É—Å–∞ (–ø–µ—Ä–µ–¥–∞—á–∞ SLA+W, –ø–∞–∫–µ—Ç–∞ –¥–∞–Ω–Ω—ã—Ö, SLA+R)
	return ACK;
     bce:	84 e0       	ldi	r24, 0x04	; 4
	else
	return NACK;
}
     bd0:	08 95       	ret

00000bd2 <stop_cond>:


void stop_cond(void){
	SET_BIT(TWCR,(1<<TWINT)|(1<<TWSTO)|(1<<TWEN));
     bd2:	ec eb       	ldi	r30, 0xBC	; 188
     bd4:	f0 e0       	ldi	r31, 0x00	; 0
     bd6:	80 81       	ld	r24, Z
     bd8:	84 69       	ori	r24, 0x94	; 148
     bda:	80 83       	st	Z, r24
     bdc:	08 95       	ret

00000bde <i2c_readbyte>:
}

uint8_t i2c_readbyte(uint8_t nack_status){											//nack_status –æ–ø—Ä–µ–¥–µ–ª—è–µ—Ç, —á—Ç–æ –±—É–¥–µ–º –æ—Ç–ø—Ä–∞–≤–ª—è—Ç—å —Å–ª–µ–π–≤—É –ø–æ—Å–ª–µ –ø—Ä–∏–µ–º–∞ –±–∞–π—Ç–∞-nack –∏–ª–∏ ack
	if (nack_status == ACK)
     bde:	84 30       	cpi	r24, 0x04	; 4
     be0:	69 f0       	breq	.+26     	; 0xbfc <i2c_readbyte+0x1e>
	MODIFY_REG(TWCR,0xC4,(1<<TWINT|1<<TWEN|1<<TWEA));
	else
	MODIFY_REG(TWCR,0xC4,(1<<TWINT|1<<TWEN));										//—Å–Ω—é—Ö–∏–≤–∞–µ–º –±–∞–π—Ç –∏ –ø–µ—Ä–µ–¥–∞–µ–º NACK(–µ—Å–ª–∏ –∑–∞–±–∏—Ä–∞—è –ø–æ—Å–ª–µ–¥–Ω–∏–π –±–∞–π—Ç —É —Å–ª–µ–≤–∞ –Ω–µ —Å–∫–∞–∑–∞—Ç—å –µ–º—É NACK, —Ç–æ –æ–Ω –ø—Ä–æ–¥–æ–ª–∂–∏—Ç —É–¥–µ—Ä–∂–∏–≤–∞—Ç—å –ª–∏–Ω–∏—é –∏ –¥–∞–ª—å–Ω–µ–π—à–∞—è —Ä–∞–±–æ—Ç–∞ —Å —à–∏–Ω–æ–π —Å—Ç–∞–Ω–µ—Ç –Ω–µ–≤–æ–∑–º–æ–∂–Ω–∞)
     be2:	80 91 bc 00 	lds	r24, 0x00BC	; 0x8000bc <__TEXT_REGION_LENGTH__+0x7f80bc>
     be6:	8b 73       	andi	r24, 0x3B	; 59
     be8:	84 68       	ori	r24, 0x84	; 132
     bea:	80 93 bc 00 	sts	0x00BC, r24	; 0x8000bc <__TEXT_REGION_LENGTH__+0x7f80bc>
	while(!READ_BIT(TWCR,(1<<TWINT))){												//–æ–∂–∏–¥–∞–µ–º —É—Å—Ç–∞–Ω–æ–≤–∫–∏ —Ñ–ª–∞–≥–∞ TWINT, —á—Ç–æ –±—É–¥–µ—Ç –æ–∑–Ω–∞—á–∞—Ç—å –Ω–∞—á–∞–ª–æ –ø–µ—Ä–µ–¥–∞—á–∏
     bee:	80 91 bc 00 	lds	r24, 0x00BC	; 0x8000bc <__TEXT_REGION_LENGTH__+0x7f80bc>
     bf2:	87 ff       	sbrs	r24, 7
     bf4:	fc cf       	rjmp	.-8      	; 0xbee <i2c_readbyte+0x10>
		//	while_delay=adc_conv;
		//	if(adc_conv-while_delay>30) return SEND_ERROR;                          //–µ—Å–ª–∏ –≤–æ –≤—Ä–µ–º—è –æ–∂–∏–¥–∞–Ω–∏—è –ø—Ä–µ–≤—ã—à–µ–Ω–æ –≤—Ä–µ–º—è, —Ç–æ –≤—ã—Ö–æ–¥–∏–º –∏–∑ —Ñ—É–Ω–∫—Ü–∏–∏
	};
	return TWDR;
     bf6:	80 91 bb 00 	lds	r24, 0x00BB	; 0x8000bb <__TEXT_REGION_LENGTH__+0x7f80bb>
}
     bfa:	08 95       	ret
	SET_BIT(TWCR,(1<<TWINT)|(1<<TWSTO)|(1<<TWEN));
}

uint8_t i2c_readbyte(uint8_t nack_status){											//nack_status –æ–ø—Ä–µ–¥–µ–ª—è–µ—Ç, —á—Ç–æ –±—É–¥–µ–º –æ—Ç–ø—Ä–∞–≤–ª—è—Ç—å —Å–ª–µ–π–≤—É –ø–æ—Å–ª–µ –ø—Ä–∏–µ–º–∞ –±–∞–π—Ç–∞-nack –∏–ª–∏ ack
	if (nack_status == ACK)
	MODIFY_REG(TWCR,0xC4,(1<<TWINT|1<<TWEN|1<<TWEA));
     bfc:	80 91 bc 00 	lds	r24, 0x00BC	; 0x8000bc <__TEXT_REGION_LENGTH__+0x7f80bc>
     c00:	84 6c       	ori	r24, 0xC4	; 196
     c02:	80 93 bc 00 	sts	0x00BC, r24	; 0x8000bc <__TEXT_REGION_LENGTH__+0x7f80bc>
     c06:	f3 cf       	rjmp	.-26     	; 0xbee <i2c_readbyte+0x10>

00000c08 <i2c_scanner>:
		//	if(adc_conv-while_delay>30) return SEND_ERROR;                          //–µ—Å–ª–∏ –≤–æ –≤—Ä–µ–º—è –æ–∂–∏–¥–∞–Ω–∏—è –ø—Ä–µ–≤—ã—à–µ–Ω–æ –≤—Ä–µ–º—è, —Ç–æ –≤—ã—Ö–æ–¥–∏–º –∏–∑ —Ñ—É–Ω–∫—Ü–∏–∏
	};
	return TWDR;
}

void i2c_scanner(uint8_t *scans){
     c08:	ef 92       	push	r14
     c0a:	ff 92       	push	r15
     c0c:	0f 93       	push	r16
     c0e:	1f 93       	push	r17
     c10:	cf 93       	push	r28
     c12:	df 93       	push	r29
     c14:	ec 01       	movw	r28, r24
     c16:	00 e0       	ldi	r16, 0x00	; 0
     c18:	10 e0       	ldi	r17, 0x00	; 0
	uint8_t cntr=0;
     c1a:	40 e0       	ldi	r20, 0x00	; 0
	
}

uint8_t i2c_sendbyte(uint8_t byte){
	WRITE_REG(TWDR,byte);
	WRITE_REG(TWCR,(1<<TWINT) | (1<<TWEN));											//–∑–∞–ø—É—Å–∫–∞–µ–º –ø–µ—Ä–µ–¥–∞—á—É
     c1c:	84 e8       	ldi	r24, 0x84	; 132
     c1e:	f8 2e       	mov	r15, r24
     c20:	30 2f       	mov	r19, r16
	WRITE_REG(TWBR, F_CPU/F_I2C/2 - 8);
}

uint8_t start_cond(void){
	uint8_t status=0;
	SET_BIT(TWCR,(1<<TWINT)|(1<<TWSTA)|(1<<TWEN));									//—É—Å–ª–æ–≤–∏–µ —Å—Ç–∞—Ä—Ç–∞
     c22:	80 91 bc 00 	lds	r24, 0x00BC	; 0x8000bc <__TEXT_REGION_LENGTH__+0x7f80bc>
     c26:	84 6a       	ori	r24, 0xA4	; 164
     c28:	80 93 bc 00 	sts	0x00BC, r24	; 0x8000bc <__TEXT_REGION_LENGTH__+0x7f80bc>
	while(!READ_BIT(TWCR,(1<<TWINT))){												//–æ–∂–∏–¥–∞–µ–º —É—Å—Ç–∞–Ω–æ–≤–∫–∏ —Ñ–ª–∞–≥–∞ TWINT, —á—Ç–æ –±—É–¥–µ—Ç –æ–∑–Ω–∞—á–∞—Ç—å –Ω–∞—á–∞–ª–æ –ø–µ—Ä–µ–¥–∞—á–∏
     c2c:	80 91 bc 00 	lds	r24, 0x00BC	; 0x8000bc <__TEXT_REGION_LENGTH__+0x7f80bc>
     c30:	87 ff       	sbrs	r24, 7
     c32:	fc cf       	rjmp	.-8      	; 0xc2c <i2c_scanner+0x24>
		//	 while_delay=adc_conv;
		//	if(adc_conv-while_delay>30) return START_ERROR;                         //–µ—Å–ª–∏ –≤–æ –≤—Ä–µ–º—è –æ–∂–∏–¥–∞–Ω–∏—è –ø—Ä–µ–≤—ã—à–µ–Ω–æ –≤—Ä–µ–º—è, —Ç–æ –≤—ã—Ö–æ–¥–∏–º –∏–∑ —Ñ—É–Ω–∫—Ü–∏–∏(—á—Ç–æ–±—ã –Ω–µ –≤–∏—Å–ª–æ)
	};
	status=TWSR&0xF8;
     c34:	80 91 b9 00 	lds	r24, 0x00B9	; 0x8000b9 <__TEXT_REGION_LENGTH__+0x7f80b9>
	return SUCCESS;
	
}

uint8_t i2c_sendbyte(uint8_t byte){
	WRITE_REG(TWDR,byte);
     c38:	30 93 bb 00 	sts	0x00BB, r19	; 0x8000bb <__TEXT_REGION_LENGTH__+0x7f80bb>
	WRITE_REG(TWCR,(1<<TWINT) | (1<<TWEN));											//–∑–∞–ø—É—Å–∫–∞–µ–º –ø–µ—Ä–µ–¥–∞—á—É
     c3c:	f0 92 bc 00 	sts	0x00BC, r15	; 0x8000bc <__TEXT_REGION_LENGTH__+0x7f80bc>
	while(!READ_BIT(TWCR,(1<<TWINT))){												//–æ–∂–∏–¥–∞–µ–º —É—Å—Ç–∞–Ω–æ–≤–∫–∏ —Ñ–ª–∞–≥–∞ TWINT, —á—Ç–æ –±—É–¥–µ—Ç –æ–∑–Ω–∞—á–∞—Ç—å –Ω–∞—á–∞–ª–æ –ø–µ—Ä–µ–¥–∞—á–∏
     c40:	80 91 bc 00 	lds	r24, 0x00BC	; 0x8000bc <__TEXT_REGION_LENGTH__+0x7f80bc>
     c44:	87 ff       	sbrs	r24, 7
     c46:	fc cf       	rjmp	.-8      	; 0xc40 <i2c_scanner+0x38>
		//	 while_delay=adc_conv;
		//	if(adc_conv-while_delay>30) return SEND_ERROR;
	};
	uint8_t status = TWSR & 0xF8;													// –°—á–∏—Ç—ã–≤–∞–Ω–∏–µ –∫–æ–¥–∞ —Å—Ç–∞—Ç—É—Å–∞
     c48:	80 91 b9 00 	lds	r24, 0x00B9	; 0x8000b9 <__TEXT_REGION_LENGTH__+0x7f80b9>
     c4c:	88 7f       	andi	r24, 0xF8	; 248
	if ((status == 0x18) | (status == 0x28) | (status == 0x40))						// –ø—Ä–æ–≤–µ—Ä–∫–∞ –∫–æ–¥–∞ —Å—Ç–∞—Ç—É—Å–∞ (–ø–µ—Ä–µ–¥–∞—á–∞ SLA+W, –ø–∞–∫–µ—Ç–∞ –¥–∞–Ω–Ω—ã—Ö, SLA+R)
     c4e:	21 e0       	ldi	r18, 0x01	; 1
     c50:	88 31       	cpi	r24, 0x18	; 24
     c52:	09 f0       	breq	.+2      	; 0xc56 <i2c_scanner+0x4e>
     c54:	20 e0       	ldi	r18, 0x00	; 0
     c56:	91 e0       	ldi	r25, 0x01	; 1
     c58:	88 32       	cpi	r24, 0x28	; 40
     c5a:	09 f0       	breq	.+2      	; 0xc5e <i2c_scanner+0x56>
     c5c:	90 e0       	ldi	r25, 0x00	; 0
     c5e:	92 2b       	or	r25, r18
     c60:	99 f4       	brne	.+38     	; 0xc88 <i2c_scanner+0x80>
     c62:	80 34       	cpi	r24, 0x40	; 64
     c64:	89 f0       	breq	.+34     	; 0xc88 <i2c_scanner+0x80>
	return NACK;
}


void stop_cond(void){
	SET_BIT(TWCR,(1<<TWINT)|(1<<TWSTO)|(1<<TWEN));
     c66:	80 91 bc 00 	lds	r24, 0x00BC	; 0x8000bc <__TEXT_REGION_LENGTH__+0x7f80bc>
     c6a:	84 69       	ori	r24, 0x94	; 148
     c6c:	80 93 bc 00 	sts	0x00BC, r24	; 0x8000bc <__TEXT_REGION_LENGTH__+0x7f80bc>
     c70:	0f 5f       	subi	r16, 0xFF	; 255
     c72:	1f 4f       	sbci	r17, 0xFF	; 255
	return TWDR;
}

void i2c_scanner(uint8_t *scans){
	uint8_t cntr=0;
	for(uint8_t i=0;i<255;i++){
     c74:	0f 3f       	cpi	r16, 0xFF	; 255
     c76:	11 05       	cpc	r17, r1
     c78:	99 f6       	brne	.-90     	; 0xc20 <i2c_scanner+0x18>
			print_string("\r\n");
			//_delay_ms(1000);
		}else
		 stop_cond();
	}
     c7a:	df 91       	pop	r29
     c7c:	cf 91       	pop	r28
     c7e:	1f 91       	pop	r17
     c80:	0f 91       	pop	r16
     c82:	ff 90       	pop	r15
     c84:	ef 90       	pop	r14
     c86:	08 95       	ret

uint8_t i2c_readbyte(uint8_t nack_status){											//nack_status –æ–ø—Ä–µ–¥–µ–ª—è–µ—Ç, —á—Ç–æ –±—É–¥–µ–º –æ—Ç–ø—Ä–∞–≤–ª—è—Ç—å —Å–ª–µ–π–≤—É –ø–æ—Å–ª–µ –ø—Ä–∏–µ–º–∞ –±–∞–π—Ç–∞-nack –∏–ª–∏ ack
	if (nack_status == ACK)
	MODIFY_REG(TWCR,0xC4,(1<<TWINT|1<<TWEN|1<<TWEA));
	else
	MODIFY_REG(TWCR,0xC4,(1<<TWINT|1<<TWEN));										//—Å–Ω—é—Ö–∏–≤–∞–µ–º –±–∞–π—Ç –∏ –ø–µ—Ä–µ–¥–∞–µ–º NACK(–µ—Å–ª–∏ –∑–∞–±–∏—Ä–∞—è –ø–æ—Å–ª–µ–¥–Ω–∏–π –±–∞–π—Ç —É —Å–ª–µ–≤–∞ –Ω–µ —Å–∫–∞–∑–∞—Ç—å –µ–º—É NACK, —Ç–æ –æ–Ω –ø—Ä–æ–¥–æ–ª–∂–∏—Ç —É–¥–µ—Ä–∂–∏–≤–∞—Ç—å –ª–∏–Ω–∏—é –∏ –¥–∞–ª—å–Ω–µ–π—à–∞—è —Ä–∞–±–æ—Ç–∞ —Å —à–∏–Ω–æ–π —Å—Ç–∞–Ω–µ—Ç –Ω–µ–≤–æ–∑–º–æ–∂–Ω–∞)
     c88:	80 91 bc 00 	lds	r24, 0x00BC	; 0x8000bc <__TEXT_REGION_LENGTH__+0x7f80bc>
     c8c:	8b 73       	andi	r24, 0x3B	; 59
     c8e:	84 68       	ori	r24, 0x84	; 132
     c90:	80 93 bc 00 	sts	0x00BC, r24	; 0x8000bc <__TEXT_REGION_LENGTH__+0x7f80bc>
	while(!READ_BIT(TWCR,(1<<TWINT))){												//–æ–∂–∏–¥–∞–µ–º —É—Å—Ç–∞–Ω–æ–≤–∫–∏ —Ñ–ª–∞–≥–∞ TWINT, —á—Ç–æ –±—É–¥–µ—Ç –æ–∑–Ω–∞—á–∞—Ç—å –Ω–∞—á–∞–ª–æ –ø–µ—Ä–µ–¥–∞—á–∏
     c94:	80 91 bc 00 	lds	r24, 0x00BC	; 0x8000bc <__TEXT_REGION_LENGTH__+0x7f80bc>
     c98:	87 ff       	sbrs	r24, 7
     c9a:	fc cf       	rjmp	.-8      	; 0xc94 <i2c_scanner+0x8c>
		//	while_delay=adc_conv;
		//	if(adc_conv-while_delay>30) return SEND_ERROR;                          //–µ—Å–ª–∏ –≤–æ –≤—Ä–µ–º—è –æ–∂–∏–¥–∞–Ω–∏—è –ø—Ä–µ–≤—ã—à–µ–Ω–æ –≤—Ä–µ–º—è, —Ç–æ –≤—ã—Ö–æ–¥–∏–º –∏–∑ —Ñ—É–Ω–∫—Ü–∏–∏
	};
	return TWDR;
     c9c:	80 91 bb 00 	lds	r24, 0x00BB	; 0x8000bb <__TEXT_REGION_LENGTH__+0x7f80bb>
	return NACK;
}


void stop_cond(void){
	SET_BIT(TWCR,(1<<TWINT)|(1<<TWSTO)|(1<<TWEN));
     ca0:	80 91 bc 00 	lds	r24, 0x00BC	; 0x8000bc <__TEXT_REGION_LENGTH__+0x7f80bc>
     ca4:	84 69       	ori	r24, 0x94	; 148
     ca6:	80 93 bc 00 	sts	0x00BC, r24	; 0x8000bc <__TEXT_REGION_LENGTH__+0x7f80bc>
		start_cond();
		uint8_t answ=i2c_sendbyte(i);
		if(answ==ACK){
			i2c_readbyte(NACK);														//—Å–ª–µ–π–≤—É –Ω–µ–æ–±—Ö–æ–¥–∏–º–æ –æ—Ç–ø—Ä–∞–≤–∏—Ç—å NACK, —á—Ç–æ–±—ã –æ–Ω –Ω–µ –¥–µ—Ä–∂–∞–ª –ª–∏–Ω–∏—é
			stop_cond();
			scans[cntr++]=i;
     caa:	ee 24       	eor	r14, r14
     cac:	e3 94       	inc	r14
     cae:	e4 0e       	add	r14, r20
     cb0:	fe 01       	movw	r30, r28
     cb2:	e4 0f       	add	r30, r20
     cb4:	f1 1d       	adc	r31, r1
     cb6:	30 83       	st	Z, r19
			print_hexnumber(i);
     cb8:	c8 01       	movw	r24, r16
     cba:	0e 94 ac 0c 	call	0x1958	; 0x1958 <print_hexnumber>
			print_string("\r\n");
     cbe:	85 e6       	ldi	r24, 0x65	; 101
     cc0:	91 e0       	ldi	r25, 0x01	; 1
     cc2:	0e 94 9d 0c 	call	0x193a	; 0x193a <print_string>
		start_cond();
		uint8_t answ=i2c_sendbyte(i);
		if(answ==ACK){
			i2c_readbyte(NACK);														//—Å–ª–µ–π–≤—É –Ω–µ–æ–±—Ö–æ–¥–∏–º–æ –æ—Ç–ø—Ä–∞–≤–∏—Ç—å NACK, —á—Ç–æ–±—ã –æ–Ω –Ω–µ –¥–µ—Ä–∂–∞–ª –ª–∏–Ω–∏—é
			stop_cond();
			scans[cntr++]=i;
     cc6:	4e 2d       	mov	r20, r14
     cc8:	d3 cf       	rjmp	.-90     	; 0xc70 <i2c_scanner+0x68>

00000cca <main>:

#define F_CPU 16000000UL
#include "main.h"

int main(void){
	hardware_init();
     cca:	0e 94 2f 05 	call	0xa5e	; 0xa5e <hardware_init>
	sei();
     cce:	78 94       	sei
	//print_string("HELLO WORLD\r\n");
	//print_bme280_coef();
  	i2c_scanner(scanned_addr);
     cd0:	8a ea       	ldi	r24, 0xAA	; 170
     cd2:	94 e0       	ldi	r25, 0x04	; 4
     cd4:	0e 94 04 06 	call	0xc08	; 0xc08 <i2c_scanner>
	menu_init(&main_menu_item_1);                                                       //–∏–Ω–∏—Ü–∏–∞–ª–∏–∑–∏—Ä—É–µ–º –º–µ–Ω—é –∏ —É—Å—Ç–∞–Ω–∞–≤–ª–∏–≤–∞–µ–º —É–∫–∞–∑–∞—Ç–µ–ª—å –Ω–∞ –ø–µ—Ä–≤—ã–π –ø—É–Ω–∫—Ç
     cd8:	8a eb       	ldi	r24, 0xBA	; 186
     cda:	94 e0       	ldi	r25, 0x04	; 4
     cdc:	0e 94 77 06 	call	0xcee	; 0xcee <menu_init>
	display_current_menu(X_MENU_OFFSET,Y_MENU_OFFSET);                                  //–æ—Ç—Ä–∏—Å–æ–≤—ã–≤–∞–µ–º –Ω–∞—á–∞–ª—å–Ω–æ–µ –º–µ–Ω—é
     ce0:	60 e0       	ldi	r22, 0x00	; 0
     ce2:	84 e1       	ldi	r24, 0x14	; 20
     ce4:	0e 94 69 08 	call	0x10d2	; 0x10d2 <display_current_menu>
    while (1) {
		enc_process();	
     ce8:	0e 94 57 05 	call	0xaae	; 0xaae <enc_process>
     cec:	fd cf       	rjmp	.-6      	; 0xce8 <main+0x1e>

00000cee <menu_init>:
	draw_string(ptr->pointer_pos_x, ptr->pointer_pos_y, pointer,MENUFONT_SPACE, BACKGROUND_COLOR, BACKGROUND_COLOR, MENU_FONT);
}

void clear_pointer_coord(MenuItem *ptr){
	ptr->pointer_pos_x=X_POINTER_OFFSET;
	ptr->pointer_pos_y=Y_POINTER_OFFSET;
     cee:	7f 92       	push	r7
     cf0:	8f 92       	push	r8
     cf2:	9f 92       	push	r9
     cf4:	af 92       	push	r10
     cf6:	bf 92       	push	r11
     cf8:	cf 92       	push	r12
     cfa:	df 92       	push	r13
     cfc:	ef 92       	push	r14
     cfe:	ff 92       	push	r15
     d00:	0f 93       	push	r16
     d02:	1f 93       	push	r17
     d04:	cf 93       	push	r28
     d06:	df 93       	push	r29
     d08:	4c 01       	movw	r8, r24
     d0a:	eb e6       	ldi	r30, 0x6B	; 107
     d0c:	f1 e0       	ldi	r31, 0x01	; 1
     d0e:	84 91       	lpm	r24, Z
     d10:	8e 5f       	subi	r24, 0xFE	; 254
     d12:	91 e1       	ldi	r25, 0x11	; 17
     d14:	e1 e2       	ldi	r30, 0x21	; 33
     d16:	f1 e0       	ldi	r31, 0x01	; 1
     d18:	aa eb       	ldi	r26, 0xBA	; 186
     d1a:	b4 e0       	ldi	r27, 0x04	; 4
     d1c:	01 90       	ld	r0, Z+
     d1e:	0d 92       	st	X+, r0
     d20:	9a 95       	dec	r25
     d22:	e1 f7       	brne	.-8      	; 0xd1c <menu_init+0x2e>
     d24:	90 e0       	ldi	r25, 0x00	; 0
     d26:	a4 e8       	ldi	r26, 0x84	; 132
     d28:	b5 e0       	ldi	r27, 0x05	; 5
     d2a:	28 e1       	ldi	r18, 0x18	; 24
     d2c:	e2 2e       	mov	r14, r18
     d2e:	21 e0       	ldi	r18, 0x01	; 1
     d30:	f2 2e       	mov	r15, r18
     d32:	11 96       	adiw	r26, 0x01	; 1
     d34:	fc 92       	st	X, r15
     d36:	ee 92       	st	-X, r14
     d38:	34 e0       	ldi	r19, 0x04	; 4
     d3a:	d3 2e       	mov	r13, r19
     d3c:	12 96       	adiw	r26, 0x02	; 2
     d3e:	dc 92       	st	X, r13
     d40:	12 97       	sbiw	r26, 0x02	; 2
     d42:	14 96       	adiw	r26, 0x04	; 4
     d44:	1c 92       	st	X, r1
     d46:	1e 92       	st	-X, r1
     d48:	13 97       	sbiw	r26, 0x03	; 3
     d4a:	4a eb       	ldi	r20, 0xBA	; 186
     d4c:	54 e0       	ldi	r21, 0x04	; 4
     d4e:	16 96       	adiw	r26, 0x06	; 6
     d50:	5c 93       	st	X, r21
     d52:	4e 93       	st	-X, r20
     d54:	15 97       	sbiw	r26, 0x05	; 5
     d56:	e9 ed       	ldi	r30, 0xD9	; 217
     d58:	f5 e0       	ldi	r31, 0x05	; 5
     d5a:	18 96       	adiw	r26, 0x08	; 8
     d5c:	fc 93       	st	X, r31
     d5e:	ee 93       	st	-X, r30
     d60:	17 97       	sbiw	r26, 0x07	; 7
     d62:	1a 96       	adiw	r26, 0x0a	; 10
     d64:	1c 92       	st	X, r1
     d66:	1e 92       	st	-X, r1
     d68:	19 97       	sbiw	r26, 0x09	; 9
     d6a:	0c ed       	ldi	r16, 0xDC	; 220
     d6c:	14 e0       	ldi	r17, 0x04	; 4
     d6e:	1c 96       	adiw	r26, 0x0c	; 12
     d70:	1c 93       	st	X, r17
     d72:	0e 93       	st	-X, r16
     d74:	1b 97       	sbiw	r26, 0x0b	; 11
     d76:	2a e0       	ldi	r18, 0x0A	; 10
     d78:	30 e0       	ldi	r19, 0x00	; 0
     d7a:	1e 96       	adiw	r26, 0x0e	; 14
     d7c:	3c 93       	st	X, r19
     d7e:	2e 93       	st	-X, r18
     d80:	1d 97       	sbiw	r26, 0x0d	; 13
     d82:	50 96       	adiw	r26, 0x10	; 16
     d84:	9c 93       	st	X, r25
     d86:	8e 93       	st	-X, r24
     d88:	1f 97       	sbiw	r26, 0x0f	; 15
     d8a:	bc 01       	movw	r22, r24
     d8c:	66 0f       	add	r22, r22
     d8e:	77 1f       	adc	r23, r23
     d90:	f1 82       	std	Z+1, r15	; 0x01
     d92:	e0 82       	st	Z, r14
     d94:	d2 82       	std	Z+2, r13	; 0x02
     d96:	14 82       	std	Z+4, r1	; 0x04
     d98:	13 82       	std	Z+3, r1	; 0x03
     d9a:	b6 83       	std	Z+6, r27	; 0x06
     d9c:	a5 83       	std	Z+5, r26	; 0x05
     d9e:	ab ec       	ldi	r26, 0xCB	; 203
     da0:	b4 e0       	ldi	r27, 0x04	; 4
     da2:	b0 87       	std	Z+8, r27	; 0x08
     da4:	a7 83       	std	Z+7, r26	; 0x07
     da6:	12 86       	std	Z+10, r1	; 0x0a
     da8:	11 86       	std	Z+9, r1	; 0x09
     daa:	c2 e6       	ldi	r28, 0x62	; 98
     dac:	d5 e0       	ldi	r29, 0x05	; 5
     dae:	d4 87       	std	Z+12, r29	; 0x0c
     db0:	c3 87       	std	Z+11, r28	; 0x0b
     db2:	36 87       	std	Z+14, r19	; 0x0e
     db4:	25 87       	std	Z+13, r18	; 0x0d
     db6:	70 8b       	std	Z+16, r23	; 0x10
     db8:	67 87       	std	Z+15, r22	; 0x0f
     dba:	5b 01       	movw	r10, r22
     dbc:	a8 0e       	add	r10, r24
     dbe:	b9 1e       	adc	r11, r25
     dc0:	11 96       	adiw	r26, 0x01	; 1
     dc2:	fc 92       	st	X, r15
     dc4:	ee 92       	st	-X, r14
     dc6:	12 96       	adiw	r26, 0x02	; 2
     dc8:	dc 92       	st	X, r13
     dca:	12 97       	sbiw	r26, 0x02	; 2
     dcc:	14 96       	adiw	r26, 0x04	; 4
     dce:	1c 92       	st	X, r1
     dd0:	1e 92       	st	-X, r1
     dd2:	13 97       	sbiw	r26, 0x03	; 3
     dd4:	16 96       	adiw	r26, 0x06	; 6
     dd6:	fc 93       	st	X, r31
     dd8:	ee 93       	st	-X, r30
     dda:	15 97       	sbiw	r26, 0x05	; 5
     ddc:	18 96       	adiw	r26, 0x08	; 8
     dde:	5c 93       	st	X, r21
     de0:	4e 93       	st	-X, r20
     de2:	17 97       	sbiw	r26, 0x07	; 7
     de4:	1a 96       	adiw	r26, 0x0a	; 10
     de6:	1c 92       	st	X, r1
     de8:	1e 92       	st	-X, r1
     dea:	19 97       	sbiw	r26, 0x09	; 9
     dec:	1c 96       	adiw	r26, 0x0c	; 12
     dee:	1c 92       	st	X, r1
     df0:	1e 92       	st	-X, r1
     df2:	1b 97       	sbiw	r26, 0x0b	; 11
     df4:	1e 96       	adiw	r26, 0x0e	; 14
     df6:	3c 93       	st	X, r19
     df8:	2e 93       	st	-X, r18
     dfa:	1d 97       	sbiw	r26, 0x0d	; 13
     dfc:	50 96       	adiw	r26, 0x10	; 16
     dfe:	bc 92       	st	X, r11
     e00:	ae 92       	st	-X, r10
     e02:	1f 97       	sbiw	r26, 0x0f	; 15
     e04:	e1 e1       	ldi	r30, 0x11	; 17
     e06:	fe 2e       	mov	r15, r30
     e08:	e2 e3       	ldi	r30, 0x32	; 50
     e0a:	f1 e0       	ldi	r31, 0x01	; 1
     e0c:	a3 e7       	ldi	r26, 0x73	; 115
     e0e:	b5 e0       	ldi	r27, 0x05	; 5
     e10:	01 90       	ld	r0, Z+
     e12:	0d 92       	st	X+, r0
     e14:	fa 94       	dec	r15
     e16:	e1 f7       	brne	.-8      	; 0xe10 <menu_init+0x122>
     e18:	a5 e9       	ldi	r26, 0x95	; 149
     e1a:	b5 e0       	ldi	r27, 0x05	; 5
     e1c:	f2 e1       	ldi	r31, 0x12	; 18
     e1e:	cf 2e       	mov	r12, r31
     e20:	f1 e0       	ldi	r31, 0x01	; 1
     e22:	df 2e       	mov	r13, r31
     e24:	11 96       	adiw	r26, 0x01	; 1
     e26:	dc 92       	st	X, r13
     e28:	ce 92       	st	-X, r12
     e2a:	e3 e0       	ldi	r30, 0x03	; 3
     e2c:	7e 2e       	mov	r7, r30
     e2e:	12 96       	adiw	r26, 0x02	; 2
     e30:	7c 92       	st	X, r7
     e32:	12 97       	sbiw	r26, 0x02	; 2
     e34:	14 96       	adiw	r26, 0x04	; 4
     e36:	1c 92       	st	X, r1
     e38:	1e 92       	st	-X, r1
     e3a:	13 97       	sbiw	r26, 0x03	; 3
     e3c:	f3 e7       	ldi	r31, 0x73	; 115
     e3e:	ef 2e       	mov	r14, r31
     e40:	f5 e0       	ldi	r31, 0x05	; 5
     e42:	ff 2e       	mov	r15, r31
     e44:	16 96       	adiw	r26, 0x06	; 6
     e46:	fc 92       	st	X, r15
     e48:	ee 92       	st	-X, r14
     e4a:	15 97       	sbiw	r26, 0x05	; 5
     e4c:	e7 eb       	ldi	r30, 0xB7	; 183
     e4e:	f5 e0       	ldi	r31, 0x05	; 5
     e50:	18 96       	adiw	r26, 0x08	; 8
     e52:	fc 93       	st	X, r31
     e54:	ee 93       	st	-X, r30
     e56:	17 97       	sbiw	r26, 0x07	; 7
     e58:	1a 96       	adiw	r26, 0x0a	; 10
     e5a:	5c 93       	st	X, r21
     e5c:	4e 93       	st	-X, r20
     e5e:	19 97       	sbiw	r26, 0x09	; 9
     e60:	1c 96       	adiw	r26, 0x0c	; 12
     e62:	1c 92       	st	X, r1
     e64:	1e 92       	st	-X, r1
     e66:	1b 97       	sbiw	r26, 0x0b	; 11
     e68:	1e 96       	adiw	r26, 0x0e	; 14
     e6a:	3c 93       	st	X, r19
     e6c:	2e 93       	st	-X, r18
     e6e:	1d 97       	sbiw	r26, 0x0d	; 13
     e70:	50 96       	adiw	r26, 0x10	; 16
     e72:	9c 93       	st	X, r25
     e74:	8e 93       	st	-X, r24
     e76:	1f 97       	sbiw	r26, 0x0f	; 15
     e78:	d1 82       	std	Z+1, r13	; 0x01
     e7a:	c0 82       	st	Z, r12
     e7c:	72 82       	std	Z+2, r7	; 0x02
     e7e:	14 82       	std	Z+4, r1	; 0x04
     e80:	13 82       	std	Z+3, r1	; 0x03
     e82:	b6 83       	std	Z+6, r27	; 0x06
     e84:	a5 83       	std	Z+5, r26	; 0x05
     e86:	f0 86       	std	Z+8, r15	; 0x08
     e88:	e7 82       	std	Z+7, r14	; 0x07
     e8a:	52 87       	std	Z+10, r21	; 0x0a
     e8c:	41 87       	std	Z+9, r20	; 0x09
     e8e:	14 86       	std	Z+12, r1	; 0x0c
     e90:	13 86       	std	Z+11, r1	; 0x0b
     e92:	36 87       	std	Z+14, r19	; 0x0e
     e94:	25 87       	std	Z+13, r18	; 0x0d
     e96:	70 8b       	std	Z+16, r23	; 0x10
     e98:	67 87       	std	Z+15, r22	; 0x0f
     e9a:	a1 e1       	ldi	r26, 0x11	; 17
     e9c:	fa 2e       	mov	r15, r26
     e9e:	e3 e4       	ldi	r30, 0x43	; 67
     ea0:	f1 e0       	ldi	r31, 0x01	; 1
     ea2:	d8 01       	movw	r26, r16
     ea4:	01 90       	ld	r0, Z+
     ea6:	0d 92       	st	X+, r0
     ea8:	fa 94       	dec	r15
     eaa:	e1 f7       	brne	.-8      	; 0xea4 <menu_init+0x1b6>
     eac:	e1 e5       	ldi	r30, 0x51	; 81
     eae:	f5 e0       	ldi	r31, 0x05	; 5
     eb0:	ae e0       	ldi	r26, 0x0E	; 14
     eb2:	b1 e0       	ldi	r27, 0x01	; 1
     eb4:	b1 83       	std	Z+1, r27	; 0x01
     eb6:	a0 83       	st	Z, r26
     eb8:	a2 e0       	ldi	r26, 0x02	; 2
     eba:	a2 83       	std	Z+2, r26	; 0x02
     ebc:	14 82       	std	Z+4, r1	; 0x04
     ebe:	13 82       	std	Z+3, r1	; 0x03
     ec0:	16 83       	std	Z+6, r17	; 0x06
     ec2:	05 83       	std	Z+5, r16	; 0x05
     ec4:	10 87       	std	Z+8, r17	; 0x08
     ec6:	07 83       	std	Z+7, r16	; 0x07
     ec8:	52 87       	std	Z+10, r21	; 0x0a
     eca:	41 87       	std	Z+9, r20	; 0x09
     ecc:	14 86       	std	Z+12, r1	; 0x0c
     ece:	13 86       	std	Z+11, r1	; 0x0b
     ed0:	36 87       	std	Z+14, r19	; 0x0e
     ed2:	25 87       	std	Z+13, r18	; 0x0d
     ed4:	90 8b       	std	Z+16, r25	; 0x10
     ed6:	87 87       	std	Z+15, r24	; 0x0f
     ed8:	11 e1       	ldi	r17, 0x11	; 17
     eda:	e4 e5       	ldi	r30, 0x54	; 84
     edc:	f1 e0       	ldi	r31, 0x01	; 1
     ede:	de 01       	movw	r26, r28
     ee0:	01 90       	ld	r0, Z+
     ee2:	0d 92       	st	X+, r0
     ee4:	1a 95       	dec	r17
     ee6:	e1 f7       	brne	.-8      	; 0xee0 <menu_init+0x1f2>
     ee8:	ea ee       	ldi	r30, 0xEA	; 234
     eea:	f5 e0       	ldi	r31, 0x05	; 5
     eec:	04 e0       	ldi	r16, 0x04	; 4
     eee:	11 e0       	ldi	r17, 0x01	; 1
     ef0:	11 83       	std	Z+1, r17	; 0x01
     ef2:	00 83       	st	Z, r16
     ef4:	b5 e0       	ldi	r27, 0x05	; 5
     ef6:	fb 2e       	mov	r15, r27
     ef8:	f2 82       	std	Z+2, r15	; 0x02
     efa:	14 82       	std	Z+4, r1	; 0x04
     efc:	13 82       	std	Z+3, r1	; 0x03
     efe:	d6 83       	std	Z+6, r29	; 0x06
     f00:	c5 83       	std	Z+5, r28	; 0x05
     f02:	ab ef       	ldi	r26, 0xFB	; 251
     f04:	b5 e0       	ldi	r27, 0x05	; 5
     f06:	b0 87       	std	Z+8, r27	; 0x08
     f08:	a7 83       	std	Z+7, r26	; 0x07
     f0a:	52 87       	std	Z+10, r21	; 0x0a
     f0c:	41 87       	std	Z+9, r20	; 0x09
     f0e:	14 86       	std	Z+12, r1	; 0x0c
     f10:	13 86       	std	Z+11, r1	; 0x0b
     f12:	36 87       	std	Z+14, r19	; 0x0e
     f14:	25 87       	std	Z+13, r18	; 0x0d
     f16:	90 8b       	std	Z+16, r25	; 0x10
     f18:	87 87       	std	Z+15, r24	; 0x0f
     f1a:	11 96       	adiw	r26, 0x01	; 1
     f1c:	1c 93       	st	X, r17
     f1e:	0e 93       	st	-X, r16
     f20:	12 96       	adiw	r26, 0x02	; 2
     f22:	fc 92       	st	X, r15
     f24:	12 97       	sbiw	r26, 0x02	; 2
     f26:	14 96       	adiw	r26, 0x04	; 4
     f28:	1c 92       	st	X, r1
     f2a:	1e 92       	st	-X, r1
     f2c:	13 97       	sbiw	r26, 0x03	; 3
     f2e:	16 96       	adiw	r26, 0x06	; 6
     f30:	fc 93       	st	X, r31
     f32:	ee 93       	st	-X, r30
     f34:	15 97       	sbiw	r26, 0x05	; 5
     f36:	e6 ea       	ldi	r30, 0xA6	; 166
     f38:	f5 e0       	ldi	r31, 0x05	; 5
     f3a:	18 96       	adiw	r26, 0x08	; 8
     f3c:	fc 93       	st	X, r31
     f3e:	ee 93       	st	-X, r30
     f40:	17 97       	sbiw	r26, 0x07	; 7
     f42:	1a 96       	adiw	r26, 0x0a	; 10
     f44:	5c 93       	st	X, r21
     f46:	4e 93       	st	-X, r20
     f48:	19 97       	sbiw	r26, 0x09	; 9
     f4a:	1c 96       	adiw	r26, 0x0c	; 12
     f4c:	1c 92       	st	X, r1
     f4e:	1e 92       	st	-X, r1
     f50:	1b 97       	sbiw	r26, 0x0b	; 11
     f52:	1e 96       	adiw	r26, 0x0e	; 14
     f54:	3c 93       	st	X, r19
     f56:	2e 93       	st	-X, r18
     f58:	1d 97       	sbiw	r26, 0x0d	; 13
     f5a:	50 96       	adiw	r26, 0x10	; 16
     f5c:	7c 93       	st	X, r23
     f5e:	6e 93       	st	-X, r22
     f60:	1f 97       	sbiw	r26, 0x0f	; 15
     f62:	11 83       	std	Z+1, r17	; 0x01
     f64:	00 83       	st	Z, r16
     f66:	f2 82       	std	Z+2, r15	; 0x02
     f68:	14 82       	std	Z+4, r1	; 0x04
     f6a:	13 82       	std	Z+3, r1	; 0x03
     f6c:	b6 83       	std	Z+6, r27	; 0x06
     f6e:	a5 83       	std	Z+5, r26	; 0x05
     f70:	a8 ec       	ldi	r26, 0xC8	; 200
     f72:	b5 e0       	ldi	r27, 0x05	; 5
     f74:	b0 87       	std	Z+8, r27	; 0x08
     f76:	a7 83       	std	Z+7, r26	; 0x07
     f78:	52 87       	std	Z+10, r21	; 0x0a
     f7a:	41 87       	std	Z+9, r20	; 0x09
     f7c:	14 86       	std	Z+12, r1	; 0x0c
     f7e:	13 86       	std	Z+11, r1	; 0x0b
     f80:	36 87       	std	Z+14, r19	; 0x0e
     f82:	25 87       	std	Z+13, r18	; 0x0d
     f84:	b0 8a       	std	Z+16, r11	; 0x10
     f86:	a7 86       	std	Z+15, r10	; 0x0f
     f88:	11 96       	adiw	r26, 0x01	; 1
     f8a:	1c 93       	st	X, r17
     f8c:	0e 93       	st	-X, r16
     f8e:	12 96       	adiw	r26, 0x02	; 2
     f90:	fc 92       	st	X, r15
     f92:	12 97       	sbiw	r26, 0x02	; 2
     f94:	14 96       	adiw	r26, 0x04	; 4
     f96:	1c 92       	st	X, r1
     f98:	1e 92       	st	-X, r1
     f9a:	13 97       	sbiw	r26, 0x03	; 3
     f9c:	16 96       	adiw	r26, 0x06	; 6
     f9e:	fc 93       	st	X, r31
     fa0:	ee 93       	st	-X, r30
     fa2:	15 97       	sbiw	r26, 0x05	; 5
     fa4:	18 96       	adiw	r26, 0x08	; 8
     fa6:	dc 93       	st	X, r29
     fa8:	ce 93       	st	-X, r28
     faa:	17 97       	sbiw	r26, 0x07	; 7
     fac:	1a 96       	adiw	r26, 0x0a	; 10
     fae:	5c 93       	st	X, r21
     fb0:	4e 93       	st	-X, r20
     fb2:	19 97       	sbiw	r26, 0x09	; 9
     fb4:	1c 96       	adiw	r26, 0x0c	; 12
     fb6:	1c 92       	st	X, r1
     fb8:	1e 92       	st	-X, r1
     fba:	1b 97       	sbiw	r26, 0x0b	; 11
     fbc:	1e 96       	adiw	r26, 0x0e	; 14
     fbe:	3c 93       	st	X, r19
     fc0:	2e 93       	st	-X, r18
     fc2:	1d 97       	sbiw	r26, 0x0d	; 13
     fc4:	88 0f       	add	r24, r24
     fc6:	99 1f       	adc	r25, r25
     fc8:	88 0f       	add	r24, r24
     fca:	99 1f       	adc	r25, r25
     fcc:	50 96       	adiw	r26, 0x10	; 16
     fce:	9c 93       	st	X, r25
     fd0:	8e 93       	st	-X, r24
     fd2:	1f 97       	sbiw	r26, 0x0f	; 15
     fd4:	90 92 b7 04 	sts	0x04B7, r9	; 0x8004b7 <current_menu+0x1>
     fd8:	80 92 b6 04 	sts	0x04B6, r8	; 0x8004b6 <current_menu>
     fdc:	81 e0       	ldi	r24, 0x01	; 1
     fde:	80 93 b8 04 	sts	0x04B8, r24	; 0x8004b8 <pointer_clear_flag>
     fe2:	df 91       	pop	r29
     fe4:	cf 91       	pop	r28
     fe6:	1f 91       	pop	r17
     fe8:	0f 91       	pop	r16
     fea:	ff 90       	pop	r15
     fec:	ef 90       	pop	r14
     fee:	df 90       	pop	r13
     ff0:	cf 90       	pop	r12
     ff2:	bf 90       	pop	r11
     ff4:	af 90       	pop	r10
     ff6:	9f 90       	pop	r9
     ff8:	8f 90       	pop	r8
     ffa:	7f 90       	pop	r7
     ffc:	08 95       	ret

00000ffe <draw_pointer>:
     ffe:	cf 92       	push	r12
    1000:	df 92       	push	r13
    1002:	ef 92       	push	r14
    1004:	ff 92       	push	r15
    1006:	0f 93       	push	r16
    1008:	1f 93       	push	r17
    100a:	40 91 02 01 	lds	r20, 0x0102	; 0x800102 <pointer>
    100e:	50 91 03 01 	lds	r21, 0x0103	; 0x800103 <pointer+0x1>
    1012:	fc 01       	movw	r30, r24
    1014:	67 85       	ldd	r22, Z+15	; 0x0f
    1016:	70 89       	ldd	r23, Z+16	; 0x10
    1018:	8a e6       	ldi	r24, 0x6A	; 106
    101a:	c8 2e       	mov	r12, r24
    101c:	81 e0       	ldi	r24, 0x01	; 1
    101e:	d8 2e       	mov	r13, r24
    1020:	90 e2       	ldi	r25, 0x20	; 32
    1022:	e9 2e       	mov	r14, r25
    1024:	9a ef       	ldi	r25, 0xFA	; 250
    1026:	f9 2e       	mov	r15, r25
    1028:	00 e0       	ldi	r16, 0x00	; 0
    102a:	10 e0       	ldi	r17, 0x00	; 0
    102c:	20 e0       	ldi	r18, 0x00	; 0
    102e:	85 85       	ldd	r24, Z+13	; 0x0d
    1030:	96 85       	ldd	r25, Z+14	; 0x0e
    1032:	0e 94 4a 0c 	call	0x1894	; 0x1894 <draw_string>
    1036:	1f 91       	pop	r17
    1038:	0f 91       	pop	r16
    103a:	ff 90       	pop	r15
    103c:	ef 90       	pop	r14
    103e:	df 90       	pop	r13
    1040:	cf 90       	pop	r12
    1042:	08 95       	ret

00001044 <clear_pointer>:
    1044:	cf 92       	push	r12
    1046:	df 92       	push	r13
    1048:	ef 92       	push	r14
    104a:	ff 92       	push	r15
    104c:	0f 93       	push	r16
    104e:	1f 93       	push	r17
    1050:	40 91 02 01 	lds	r20, 0x0102	; 0x800102 <pointer>
    1054:	50 91 03 01 	lds	r21, 0x0103	; 0x800103 <pointer+0x1>
    1058:	fc 01       	movw	r30, r24
    105a:	67 85       	ldd	r22, Z+15	; 0x0f
    105c:	70 89       	ldd	r23, Z+16	; 0x10
    105e:	8a e6       	ldi	r24, 0x6A	; 106
    1060:	c8 2e       	mov	r12, r24
    1062:	81 e0       	ldi	r24, 0x01	; 1
    1064:	d8 2e       	mov	r13, r24
    1066:	e1 2c       	mov	r14, r1
    1068:	f1 2c       	mov	r15, r1
    106a:	00 e0       	ldi	r16, 0x00	; 0
    106c:	10 e0       	ldi	r17, 0x00	; 0
    106e:	20 e0       	ldi	r18, 0x00	; 0
    1070:	85 85       	ldd	r24, Z+13	; 0x0d
    1072:	96 85       	ldd	r25, Z+14	; 0x0e
    1074:	0e 94 4a 0c 	call	0x1894	; 0x1894 <draw_string>
    1078:	1f 91       	pop	r17
    107a:	0f 91       	pop	r16
    107c:	ff 90       	pop	r15
    107e:	ef 90       	pop	r14
    1080:	df 90       	pop	r13
    1082:	cf 90       	pop	r12
    1084:	08 95       	ret

00001086 <display_pointer>:
}

void display_pointer(const char *pointer) {
	static MenuItem *prev_menu = NULL;
	if(pointer_clear_flag) {
    1086:	80 91 b8 04 	lds	r24, 0x04B8	; 0x8004b8 <pointer_clear_flag>
    108a:	88 23       	and	r24, r24
    108c:	09 f1       	breq	.+66     	; 0x10d0 <display_pointer+0x4a>
		if(prev_menu != NULL && prev_menu != current_menu) {  // –æ—á–∏—â–∞–µ–º —Å—Ç–∞—Ä—ã–π —É–∫–∞–∑–∞—Ç–µ–ª—å –µ—Å–ª–∏ –º–µ–Ω—é –∏–∑–º–µ–Ω–∏–ª–æ—Å—å
    108e:	20 91 b4 04 	lds	r18, 0x04B4	; 0x8004b4 <prev_menu.2768>
    1092:	30 91 b5 04 	lds	r19, 0x04B5	; 0x8004b5 <prev_menu.2768+0x1>
    1096:	80 91 b6 04 	lds	r24, 0x04B6	; 0x8004b6 <current_menu>
    109a:	90 91 b7 04 	lds	r25, 0x04B7	; 0x8004b7 <current_menu+0x1>
    109e:	21 15       	cp	r18, r1
    10a0:	31 05       	cpc	r19, r1
    10a2:	51 f0       	breq	.+20     	; 0x10b8 <display_pointer+0x32>
    10a4:	28 17       	cp	r18, r24
    10a6:	39 07       	cpc	r19, r25
    10a8:	39 f0       	breq	.+14     	; 0x10b8 <display_pointer+0x32>
			clear_pointer(prev_menu);
    10aa:	c9 01       	movw	r24, r18
    10ac:	0e 94 22 08 	call	0x1044	; 0x1044 <clear_pointer>
    10b0:	80 91 b6 04 	lds	r24, 0x04B6	; 0x8004b6 <current_menu>
    10b4:	90 91 b7 04 	lds	r25, 0x04B7	; 0x8004b7 <current_menu+0x1>
		}
		draw_pointer(current_menu);
    10b8:	0e 94 ff 07 	call	0xffe	; 0xffe <draw_pointer>
		prev_menu = current_menu;
    10bc:	80 91 b6 04 	lds	r24, 0x04B6	; 0x8004b6 <current_menu>
    10c0:	90 91 b7 04 	lds	r25, 0x04B7	; 0x8004b7 <current_menu+0x1>
    10c4:	90 93 b5 04 	sts	0x04B5, r25	; 0x8004b5 <prev_menu.2768+0x1>
    10c8:	80 93 b4 04 	sts	0x04B4, r24	; 0x8004b4 <prev_menu.2768>
		pointer_clear_flag = 0;
    10cc:	10 92 b8 04 	sts	0x04B8, r1	; 0x8004b8 <pointer_clear_flag>
    10d0:	08 95       	ret

000010d2 <display_current_menu>:
	}
}

//—Ñ—É–Ω–∫—Ü–∏—è –æ—Ç–æ–±—Ä–∞–∂–µ–Ω–∏—è –≤—Å–µ—Ö –ø—É–Ω–∫—Ç–æ–≤ —Ç–µ–∫—É—â–µ–≥–æ –º–µ–Ω—é
void display_current_menu(uint8_t xstart, uint8_t ystart) {
    10d2:	8f 92       	push	r8
    10d4:	9f 92       	push	r9
    10d6:	af 92       	push	r10
    10d8:	bf 92       	push	r11
    10da:	cf 92       	push	r12
    10dc:	df 92       	push	r13
    10de:	ef 92       	push	r14
    10e0:	ff 92       	push	r15
    10e2:	0f 93       	push	r16
    10e4:	1f 93       	push	r17
    10e6:	cf 93       	push	r28
    10e8:	df 93       	push	r29
    10ea:	c8 2f       	mov	r28, r24
    10ec:	a6 2e       	mov	r10, r22
	uint8_t space=pgm_read_byte(MENU_FONT+1)+2;
    10ee:	eb e6       	ldi	r30, 0x6B	; 107
    10f0:	f1 e0       	ldi	r31, 0x01	; 1
    10f2:	84 90       	lpm	r8, Z
    10f4:	83 94       	inc	r8
    10f6:	83 94       	inc	r8
	clear_pointer(current_menu);
    10f8:	80 91 b6 04 	lds	r24, 0x04B6	; 0x8004b6 <current_menu>
    10fc:	90 91 b7 04 	lds	r25, 0x04B7	; 0x8004b7 <current_menu+0x1>
    1100:	0e 94 22 08 	call	0x1044	; 0x1044 <clear_pointer>
	for(uint8_t i=0;i<current_menu->num_menu_items;i++){
    1104:	a0 91 b6 04 	lds	r26, 0x04B6	; 0x8004b6 <current_menu>
    1108:	b0 91 b7 04 	lds	r27, 0x04B7	; 0x8004b7 <current_menu+0x1>
    110c:	12 96       	adiw	r26, 0x02	; 2
    110e:	8c 91       	ld	r24, X
    1110:	12 97       	sbiw	r26, 0x02	; 2
    1112:	88 23       	and	r24, r24
    1114:	51 f1       	breq	.+84     	; 0x116a <display_current_menu+0x98>
    1116:	b1 2c       	mov	r11, r1
    1118:	d0 e0       	ldi	r29, 0x00	; 0
    111a:	91 2c       	mov	r9, r1
		draw_string(xstart,ystart+space*i,*(current_menu->menu_name+i), MENUFONT_SPACE, BACKGROUND_COLOR, MENU_COLOR,MENU_FONT);
    111c:	e9 2d       	mov	r30, r9
    111e:	f0 e0       	ldi	r31, 0x00	; 0
    1120:	ee 0f       	add	r30, r30
    1122:	ff 1f       	adc	r31, r31
    1124:	8d 91       	ld	r24, X+
    1126:	9c 91       	ld	r25, X
    1128:	e8 0f       	add	r30, r24
    112a:	f9 1f       	adc	r31, r25
    112c:	40 81       	ld	r20, Z
    112e:	51 81       	ldd	r21, Z+1	; 0x01
    1130:	b5 01       	movw	r22, r10
    1132:	98 9c       	mul	r9, r8
    1134:	60 0d       	add	r22, r0
    1136:	71 1d       	adc	r23, r1
    1138:	11 24       	eor	r1, r1
    113a:	9a e6       	ldi	r25, 0x6A	; 106
    113c:	c9 2e       	mov	r12, r25
    113e:	91 e0       	ldi	r25, 0x01	; 1
    1140:	d9 2e       	mov	r13, r25
    1142:	20 ee       	ldi	r18, 0xE0	; 224
    1144:	e2 2e       	mov	r14, r18
    1146:	27 e0       	ldi	r18, 0x07	; 7
    1148:	f2 2e       	mov	r15, r18
    114a:	00 e0       	ldi	r16, 0x00	; 0
    114c:	10 e0       	ldi	r17, 0x00	; 0
    114e:	20 e0       	ldi	r18, 0x00	; 0
    1150:	ce 01       	movw	r24, r28
    1152:	0e 94 4a 0c 	call	0x1894	; 0x1894 <draw_string>

//—Ñ—É–Ω–∫—Ü–∏—è –æ—Ç–æ–±—Ä–∞–∂–µ–Ω–∏—è –≤—Å–µ—Ö –ø—É–Ω–∫—Ç–æ–≤ —Ç–µ–∫—É—â–µ–≥–æ –º–µ–Ω—é
void display_current_menu(uint8_t xstart, uint8_t ystart) {
	uint8_t space=pgm_read_byte(MENU_FONT+1)+2;
	clear_pointer(current_menu);
	for(uint8_t i=0;i<current_menu->num_menu_items;i++){
    1156:	93 94       	inc	r9
    1158:	a0 91 b6 04 	lds	r26, 0x04B6	; 0x8004b6 <current_menu>
    115c:	b0 91 b7 04 	lds	r27, 0x04B7	; 0x8004b7 <current_menu+0x1>
    1160:	12 96       	adiw	r26, 0x02	; 2
    1162:	8c 91       	ld	r24, X
    1164:	12 97       	sbiw	r26, 0x02	; 2
    1166:	98 16       	cp	r9, r24
    1168:	c8 f2       	brcs	.-78     	; 0x111c <display_current_menu+0x4a>
		draw_string(xstart,ystart+space*i,*(current_menu->menu_name+i), MENUFONT_SPACE, BACKGROUND_COLOR, MENU_COLOR,MENU_FONT);
	}
}
    116a:	df 91       	pop	r29
    116c:	cf 91       	pop	r28
    116e:	1f 91       	pop	r17
    1170:	0f 91       	pop	r16
    1172:	ff 90       	pop	r15
    1174:	ef 90       	pop	r14
    1176:	df 90       	pop	r13
    1178:	cf 90       	pop	r12
    117a:	bf 90       	pop	r11
    117c:	af 90       	pop	r10
    117e:	9f 90       	pop	r9
    1180:	8f 90       	pop	r8
    1182:	08 95       	ret

00001184 <clear_current_menu>:

void clear_current_menu(uint8_t xstart, uint8_t ystart) {
    1184:	8f 92       	push	r8
    1186:	9f 92       	push	r9
    1188:	af 92       	push	r10
    118a:	bf 92       	push	r11
    118c:	cf 92       	push	r12
    118e:	df 92       	push	r13
    1190:	ef 92       	push	r14
    1192:	ff 92       	push	r15
    1194:	0f 93       	push	r16
    1196:	1f 93       	push	r17
    1198:	cf 93       	push	r28
    119a:	df 93       	push	r29
	uint8_t space=pgm_read_byte(MENU_FONT+1)+2;
    119c:	eb e6       	ldi	r30, 0x6B	; 107
    119e:	f1 e0       	ldi	r31, 0x01	; 1
    11a0:	84 90       	lpm	r8, Z
    11a2:	83 94       	inc	r8
    11a4:	83 94       	inc	r8
	for(uint8_t i=0;i<current_menu->num_menu_items;i++){
    11a6:	a0 91 b6 04 	lds	r26, 0x04B6	; 0x8004b6 <current_menu>
    11aa:	b0 91 b7 04 	lds	r27, 0x04B7	; 0x8004b7 <current_menu+0x1>
    11ae:	12 96       	adiw	r26, 0x02	; 2
    11b0:	9c 91       	ld	r25, X
    11b2:	12 97       	sbiw	r26, 0x02	; 2
    11b4:	99 23       	and	r25, r25
    11b6:	51 f1       	breq	.+84     	; 0x120c <clear_current_menu+0x88>
    11b8:	a6 2e       	mov	r10, r22
    11ba:	b1 2c       	mov	r11, r1
    11bc:	c8 2f       	mov	r28, r24
    11be:	d0 e0       	ldi	r29, 0x00	; 0
    11c0:	91 2c       	mov	r9, r1
		draw_string(xstart,ystart+space*i,*(current_menu->menu_name+i), MENUFONT_SPACE, BACKGROUND_COLOR, BACKGROUND_COLOR,MENU_FONT);
    11c2:	e9 2d       	mov	r30, r9
    11c4:	f0 e0       	ldi	r31, 0x00	; 0
    11c6:	ee 0f       	add	r30, r30
    11c8:	ff 1f       	adc	r31, r31
    11ca:	8d 91       	ld	r24, X+
    11cc:	9c 91       	ld	r25, X
    11ce:	e8 0f       	add	r30, r24
    11d0:	f9 1f       	adc	r31, r25
    11d2:	40 81       	ld	r20, Z
    11d4:	51 81       	ldd	r21, Z+1	; 0x01
    11d6:	b5 01       	movw	r22, r10
    11d8:	98 9c       	mul	r9, r8
    11da:	60 0d       	add	r22, r0
    11dc:	71 1d       	adc	r23, r1
    11de:	11 24       	eor	r1, r1
    11e0:	9a e6       	ldi	r25, 0x6A	; 106
    11e2:	c9 2e       	mov	r12, r25
    11e4:	91 e0       	ldi	r25, 0x01	; 1
    11e6:	d9 2e       	mov	r13, r25
    11e8:	e1 2c       	mov	r14, r1
    11ea:	f1 2c       	mov	r15, r1
    11ec:	00 e0       	ldi	r16, 0x00	; 0
    11ee:	10 e0       	ldi	r17, 0x00	; 0
    11f0:	20 e0       	ldi	r18, 0x00	; 0
    11f2:	ce 01       	movw	r24, r28
    11f4:	0e 94 4a 0c 	call	0x1894	; 0x1894 <draw_string>
	}
}

void clear_current_menu(uint8_t xstart, uint8_t ystart) {
	uint8_t space=pgm_read_byte(MENU_FONT+1)+2;
	for(uint8_t i=0;i<current_menu->num_menu_items;i++){
    11f8:	93 94       	inc	r9
    11fa:	a0 91 b6 04 	lds	r26, 0x04B6	; 0x8004b6 <current_menu>
    11fe:	b0 91 b7 04 	lds	r27, 0x04B7	; 0x8004b7 <current_menu+0x1>
    1202:	12 96       	adiw	r26, 0x02	; 2
    1204:	8c 91       	ld	r24, X
    1206:	12 97       	sbiw	r26, 0x02	; 2
    1208:	98 16       	cp	r9, r24
    120a:	d8 f2       	brcs	.-74     	; 0x11c2 <clear_current_menu+0x3e>
		draw_string(xstart,ystart+space*i,*(current_menu->menu_name+i), MENUFONT_SPACE, BACKGROUND_COLOR, BACKGROUND_COLOR,MENU_FONT);
	}
	clear_pointer(current_menu);
    120c:	cd 01       	movw	r24, r26
	
}
    120e:	df 91       	pop	r29
    1210:	cf 91       	pop	r28
    1212:	1f 91       	pop	r17
    1214:	0f 91       	pop	r16
    1216:	ff 90       	pop	r15
    1218:	ef 90       	pop	r14
    121a:	df 90       	pop	r13
    121c:	cf 90       	pop	r12
    121e:	bf 90       	pop	r11
    1220:	af 90       	pop	r10
    1222:	9f 90       	pop	r9
    1224:	8f 90       	pop	r8
void clear_current_menu(uint8_t xstart, uint8_t ystart) {
	uint8_t space=pgm_read_byte(MENU_FONT+1)+2;
	for(uint8_t i=0;i<current_menu->num_menu_items;i++){
		draw_string(xstart,ystart+space*i,*(current_menu->menu_name+i), MENUFONT_SPACE, BACKGROUND_COLOR, BACKGROUND_COLOR,MENU_FONT);
	}
	clear_pointer(current_menu);
    1226:	0c 94 22 08 	jmp	0x1044	; 0x1044 <clear_pointer>

0000122a <enter_upmenu>:
	
}

void enter_upmenu(void) {
	clear_current_menu(X_MENU_OFFSET,Y_MENU_OFFSET);
    122a:	60 e0       	ldi	r22, 0x00	; 0
    122c:	84 e1       	ldi	r24, 0x14	; 20
    122e:	0e 94 c2 08 	call	0x1184	; 0x1184 <clear_current_menu>
	if(current_menu->parent != NULL||current_menu->action!=NULL) {
    1232:	e0 91 b6 04 	lds	r30, 0x04B6	; 0x8004b6 <current_menu>
    1236:	f0 91 b7 04 	lds	r31, 0x04B7	; 0x8004b7 <current_menu+0x1>
    123a:	81 85       	ldd	r24, Z+9	; 0x09
    123c:	92 85       	ldd	r25, Z+10	; 0x0a
    123e:	00 97       	sbiw	r24, 0x00	; 0
    1240:	59 f0       	breq	.+22     	; 0x1258 <enter_upmenu+0x2e>
		current_menu = current_menu->parent;
    1242:	90 93 b7 04 	sts	0x04B7, r25	; 0x8004b7 <current_menu+0x1>
    1246:	80 93 b6 04 	sts	0x04B6, r24	; 0x8004b6 <current_menu>
		pointer_clear_flag = 1;
    124a:	81 e0       	ldi	r24, 0x01	; 1
    124c:	80 93 b8 04 	sts	0x04B8, r24	; 0x8004b8 <pointer_clear_flag>
		display_current_menu(X_MENU_OFFSET, Y_MENU_OFFSET);
    1250:	60 e0       	ldi	r22, 0x00	; 0
    1252:	84 e1       	ldi	r24, 0x14	; 20
    1254:	0c 94 69 08 	jmp	0x10d2	; 0x10d2 <display_current_menu>
	
}

void enter_upmenu(void) {
	clear_current_menu(X_MENU_OFFSET,Y_MENU_OFFSET);
	if(current_menu->parent != NULL||current_menu->action!=NULL) {
    1258:	23 81       	ldd	r18, Z+3	; 0x03
    125a:	34 81       	ldd	r19, Z+4	; 0x04
    125c:	23 2b       	or	r18, r19
    125e:	89 f7       	brne	.-30     	; 0x1242 <enter_upmenu+0x18>
    1260:	08 95       	ret

00001262 <enter_submenu>:
		display_current_menu(X_MENU_OFFSET, Y_MENU_OFFSET);
	}
}

void enter_submenu(void) {
	clear_current_menu(X_MENU_OFFSET,Y_MENU_OFFSET);
    1262:	60 e0       	ldi	r22, 0x00	; 0
    1264:	84 e1       	ldi	r24, 0x14	; 20
    1266:	0e 94 c2 08 	call	0x1184	; 0x1184 <clear_current_menu>
	if(current_menu->child != NULL) {
    126a:	e0 91 b6 04 	lds	r30, 0x04B6	; 0x8004b6 <current_menu>
    126e:	f0 91 b7 04 	lds	r31, 0x04B7	; 0x8004b7 <current_menu+0x1>
    1272:	83 85       	ldd	r24, Z+11	; 0x0b
    1274:	94 85       	ldd	r25, Z+12	; 0x0c
    1276:	00 97       	sbiw	r24, 0x00	; 0
    1278:	59 f0       	breq	.+22     	; 0x1290 <enter_submenu+0x2e>
		current_menu = current_menu->child;
    127a:	90 93 b7 04 	sts	0x04B7, r25	; 0x8004b7 <current_menu+0x1>
    127e:	80 93 b6 04 	sts	0x04B6, r24	; 0x8004b6 <current_menu>
		pointer_clear_flag = 1;
    1282:	81 e0       	ldi	r24, 0x01	; 1
    1284:	80 93 b8 04 	sts	0x04B8, r24	; 0x8004b8 <pointer_clear_flag>
		display_current_menu(X_MENU_OFFSET, Y_MENU_OFFSET);
    1288:	60 e0       	ldi	r22, 0x00	; 0
    128a:	84 e1       	ldi	r24, 0x14	; 20
    128c:	0c 94 69 08 	jmp	0x10d2	; 0x10d2 <display_current_menu>
    1290:	08 95       	ret

00001292 <execute_menu_action>:
	}
}

void execute_menu_action(void) {                               // —Ñ—É–Ω–∫—Ü–∏—è –∑–∞–ø—É—Å–∫–∞ –æ–±—Ä–∞–±–æ—Ç—á–∏–∫–∞ –ø—É–Ω–∫—Ç–∞ –º–µ–Ω—é, –µ—Å–ª–∏ –æ–Ω –µ—Å—Ç—å –¥–ª—è –¥–∞–Ω–Ω–æ–≥–æ –ø—É–Ω–∫—Ç–∞ –º–µ–Ω—é
	if (current_menu->action)current_menu->action();
    1292:	e0 91 b6 04 	lds	r30, 0x04B6	; 0x8004b6 <current_menu>
    1296:	f0 91 b7 04 	lds	r31, 0x04B7	; 0x8004b7 <current_menu+0x1>
    129a:	03 80       	ldd	r0, Z+3	; 0x03
    129c:	f4 81       	ldd	r31, Z+4	; 0x04
    129e:	e0 2d       	mov	r30, r0
    12a0:	30 97       	sbiw	r30, 0x00	; 0
    12a2:	09 f0       	breq	.+2      	; 0x12a6 <execute_menu_action+0x14>
    12a4:	09 94       	ijmp
    12a6:	08 95       	ret

000012a8 <mpu6050_sendbyte>:
	byte=i2c_readbyte(NACK);
	stop_cond();
	return byte;
}

uint8_t mpu6050_sendbyte(uint8_t dev_addr, uint8_t reg,uint8_t data){
    12a8:	1f 93       	push	r17
    12aa:	cf 93       	push	r28
    12ac:	df 93       	push	r29
    12ae:	18 2f       	mov	r17, r24
    12b0:	d6 2f       	mov	r29, r22
    12b2:	c4 2f       	mov	r28, r20
	start_cond();
    12b4:	0e 94 b9 05 	call	0xb72	; 0xb72 <start_cond>
	i2c_sendbyte(dev_addr);
    12b8:	81 2f       	mov	r24, r17
    12ba:	0e 94 cd 05 	call	0xb9a	; 0xb9a <i2c_sendbyte>
	i2c_sendbyte(reg);
    12be:	8d 2f       	mov	r24, r29
    12c0:	0e 94 cd 05 	call	0xb9a	; 0xb9a <i2c_sendbyte>
	i2c_sendbyte(data);
    12c4:	8c 2f       	mov	r24, r28
    12c6:	0e 94 cd 05 	call	0xb9a	; 0xb9a <i2c_sendbyte>
	stop_cond();
    12ca:	0e 94 e9 05 	call	0xbd2	; 0xbd2 <stop_cond>
	return SUCCESS;
}
    12ce:	80 e0       	ldi	r24, 0x00	; 0
    12d0:	df 91       	pop	r29
    12d2:	cf 91       	pop	r28
    12d4:	1f 91       	pop	r17
    12d6:	08 95       	ret

000012d8 <mpu6050_init>:

void mpu6050_init(void){
	mpu6050_sendbyte(MPU6050_ADDR,CONFIG_ACCEL,AFS_SEL_0);
    12d8:	40 e0       	ldi	r20, 0x00	; 0
    12da:	6c e1       	ldi	r22, 0x1C	; 28
    12dc:	80 ed       	ldi	r24, 0xD0	; 208
    12de:	0e 94 54 09 	call	0x12a8	; 0x12a8 <mpu6050_sendbyte>
	mpu6050_sendbyte(MPU6050_ADDR,CONFIG_GYRO,FS_SEL_0);
    12e2:	40 e0       	ldi	r20, 0x00	; 0
    12e4:	6b e1       	ldi	r22, 0x1B	; 27
    12e6:	80 ed       	ldi	r24, 0xD0	; 208
    12e8:	0e 94 54 09 	call	0x12a8	; 0x12a8 <mpu6050_sendbyte>
	mpu6050_sendbyte(MPU6050_ADDR,PWR_MGMNT,0x00);
    12ec:	40 e0       	ldi	r20, 0x00	; 0
    12ee:	6b e6       	ldi	r22, 0x6B	; 107
    12f0:	80 ed       	ldi	r24, 0xD0	; 208
    12f2:	0c 94 54 09 	jmp	0x12a8	; 0x12a8 <mpu6050_sendbyte>

000012f6 <tim1A_init>:
	
}

 long map(long x, long in_min, long in_max, long out_min, long out_max){
	 return (x - in_min) * (out_max - out_min) / (in_max - in_min) + out_min;
 }
    12f6:	10 92 85 00 	sts	0x0085, r1	; 0x800085 <__TEXT_REGION_LENGTH__+0x7f8085>
    12fa:	10 92 84 00 	sts	0x0084, r1	; 0x800084 <__TEXT_REGION_LENGTH__+0x7f8084>
    12fe:	8e e3       	ldi	r24, 0x3E	; 62
    1300:	90 e0       	ldi	r25, 0x00	; 0
    1302:	90 93 87 00 	sts	0x0087, r25	; 0x800087 <__TEXT_REGION_LENGTH__+0x7f8087>
    1306:	80 93 86 00 	sts	0x0086, r24	; 0x800086 <__TEXT_REGION_LENGTH__+0x7f8086>
    130a:	e0 e8       	ldi	r30, 0x80	; 128
    130c:	f0 e0       	ldi	r31, 0x00	; 0
    130e:	80 81       	ld	r24, Z
    1310:	8f 73       	andi	r24, 0x3F	; 63
    1312:	80 68       	ori	r24, 0x80	; 128
    1314:	80 83       	st	Z, r24
    1316:	80 81       	ld	r24, Z
    1318:	82 60       	ori	r24, 0x02	; 2
    131a:	80 83       	st	Z, r24
    131c:	e1 e8       	ldi	r30, 0x81	; 129
    131e:	f0 e0       	ldi	r31, 0x00	; 0
    1320:	80 81       	ld	r24, Z
    1322:	88 61       	ori	r24, 0x18	; 24
    1324:	80 83       	st	Z, r24
    1326:	08 95       	ret

00001328 <pwm1A_start>:

void pwm1A_start(uint8_t duty){
    1328:	85 36       	cpi	r24, 0x65	; 101
    132a:	08 f0       	brcs	.+2      	; 0x132e <pwm1A_start+0x6>
    132c:	84 e6       	ldi	r24, 0x64	; 100
	duty>100?duty=100:0;
	WRITE_REG(OCR1A,(FREQ_VALUE*duty)/100);
    132e:	28 2f       	mov	r18, r24
    1330:	30 e0       	ldi	r19, 0x00	; 0
    1332:	ae e3       	ldi	r26, 0x3E	; 62
    1334:	b0 e0       	ldi	r27, 0x00	; 0
    1336:	0e 94 82 10 	call	0x2104	; 0x2104 <__umulhisi3>
    133a:	24 e6       	ldi	r18, 0x64	; 100
    133c:	30 e0       	ldi	r19, 0x00	; 0
    133e:	40 e0       	ldi	r20, 0x00	; 0
    1340:	50 e0       	ldi	r21, 0x00	; 0
    1342:	0e 94 60 10 	call	0x20c0	; 0x20c0 <__udivmodsi4>
    1346:	30 93 89 00 	sts	0x0089, r19	; 0x800089 <__TEXT_REGION_LENGTH__+0x7f8089>
    134a:	20 93 88 00 	sts	0x0088, r18	; 0x800088 <__TEXT_REGION_LENGTH__+0x7f8088>
	SET_BIT(TCCR1A,(1<<WGM11));                                           
    134e:	80 91 80 00 	lds	r24, 0x0080	; 0x800080 <__TEXT_REGION_LENGTH__+0x7f8080>
    1352:	82 60       	ori	r24, 0x02	; 2
    1354:	80 93 80 00 	sts	0x0080, r24	; 0x800080 <__TEXT_REGION_LENGTH__+0x7f8080>
	SET_BIT(TCCR1B,(1<<WGM12|1<<WGM13));
    1358:	80 91 81 00 	lds	r24, 0x0081	; 0x800081 <__TEXT_REGION_LENGTH__+0x7f8081>
    135c:	88 61       	ori	r24, 0x18	; 24
    135e:	80 93 81 00 	sts	0x0081, r24	; 0x800081 <__TEXT_REGION_LENGTH__+0x7f8081>
	MODIFY_REG(TCCR1B,RESET_DIVIDER,(1<<CS12));                                 
    1362:	80 91 81 00 	lds	r24, 0x0081	; 0x800081 <__TEXT_REGION_LENGTH__+0x7f8081>
    1366:	88 7f       	andi	r24, 0xF8	; 248
    1368:	84 60       	ori	r24, 0x04	; 4
    136a:	80 93 81 00 	sts	0x0081, r24	; 0x800081 <__TEXT_REGION_LENGTH__+0x7f8081>
    136e:	08 95       	ret

00001370 <spi_master_init>:
#include "spi.h"

void spi_master_init(void){
	SET_BIT(SPI_DDR,(1<<DATA|1<<CLOCK));
    1370:	84 b1       	in	r24, 0x04	; 4
    1372:	88 62       	ori	r24, 0x28	; 40
    1374:	84 b9       	out	0x04, r24	; 4
	CLEAR_BIT(SPCR,1<<SPR0|1<<SPR1);
    1376:	8c b5       	in	r24, 0x2c	; 44
    1378:	8c 7f       	andi	r24, 0xFC	; 252
    137a:	8c bd       	out	0x2c, r24	; 44
	SET_BIT(SPSR,1<<SPI2X);      // fck/2  16000000/2=8Ã√ˆ(·ÂıÌˇ, 4 Ï„ˆ Ï‡ÍÒËÏÛÏ)
    137c:	8d b5       	in	r24, 0x2d	; 45
    137e:	81 60       	ori	r24, 0x01	; 1
    1380:	8d bd       	out	0x2d, r24	; 45
	SET_BIT(SPCR,(1<<SPE|1<<MSTR)); 
    1382:	8c b5       	in	r24, 0x2c	; 44
    1384:	80 65       	ori	r24, 0x50	; 80
    1386:	8c bd       	out	0x2c, r24	; 44
    1388:	08 95       	ret

0000138a <spi_sendbyte>:
	}

void spi_sendbyte(uint8_t byte){
	SPDR = byte;
    138a:	8e bd       	out	0x2e, r24	; 46
	while(!READ_BIT(SPSR,(1<<SPIF)));
    138c:	0d b4       	in	r0, 0x2d	; 45
    138e:	07 fe       	sbrs	r0, 7
    1390:	fd cf       	rjmp	.-6      	; 0x138c <spi_sendbyte+0x2>
}
    1392:	08 95       	ret

00001394 <st7735_ports_init>:
	while(s++ < x_stop*y_stop){
		spi_sendbyte((uint8_t)image[s]);
		spi_sendbyte((uint8_t)(image[s]>>8));
	}
	STOP_Tx;
}
    1394:	21 9a       	sbi	0x04, 1	; 4
    1396:	22 9a       	sbi	0x04, 2	; 4
    1398:	24 9a       	sbi	0x04, 4	; 4
    139a:	20 9a       	sbi	0x04, 0	; 4
    139c:	08 95       	ret

0000139e <st7735_multiply_send>:
    139e:	8f 92       	push	r8
    13a0:	9f 92       	push	r9
    13a2:	af 92       	push	r10
    13a4:	bf 92       	push	r11
    13a6:	cf 92       	push	r12
    13a8:	df 92       	push	r13
    13aa:	ef 92       	push	r14
    13ac:	ff 92       	push	r15
    13ae:	cf 93       	push	r28
    13b0:	df 93       	push	r29
    13b2:	2a 9a       	sbi	0x05, 2	; 5
    13b4:	41 15       	cp	r20, r1
    13b6:	51 05       	cpc	r21, r1
    13b8:	61 05       	cpc	r22, r1
    13ba:	71 05       	cpc	r23, r1
    13bc:	a1 f0       	breq	.+40     	; 0x13e6 <st7735_multiply_send+0x48>
    13be:	4a 01       	movw	r8, r20
    13c0:	5b 01       	movw	r10, r22
    13c2:	ec 01       	movw	r28, r24
    13c4:	c1 2c       	mov	r12, r1
    13c6:	d1 2c       	mov	r13, r1
    13c8:	76 01       	movw	r14, r12
    13ca:	89 91       	ld	r24, Y+
    13cc:	2a 9a       	sbi	0x05, 2	; 5
    13ce:	0e 94 c5 09 	call	0x138a	; 0x138a <spi_sendbyte>
    13d2:	8f ef       	ldi	r24, 0xFF	; 255
    13d4:	c8 1a       	sub	r12, r24
    13d6:	d8 0a       	sbc	r13, r24
    13d8:	e8 0a       	sbc	r14, r24
    13da:	f8 0a       	sbc	r15, r24
    13dc:	8c 14       	cp	r8, r12
    13de:	9d 04       	cpc	r9, r13
    13e0:	ae 04       	cpc	r10, r14
    13e2:	bf 04       	cpc	r11, r15
    13e4:	91 f7       	brne	.-28     	; 0x13ca <st7735_multiply_send+0x2c>
    13e6:	df 91       	pop	r29
    13e8:	cf 91       	pop	r28
    13ea:	ff 90       	pop	r15
    13ec:	ef 90       	pop	r14
    13ee:	df 90       	pop	r13
    13f0:	cf 90       	pop	r12
    13f2:	bf 90       	pop	r11
    13f4:	af 90       	pop	r10
    13f6:	9f 90       	pop	r9
    13f8:	8f 90       	pop	r8
    13fa:	08 95       	ret

000013fc <st7735_init>:
    13fc:	28 98       	cbi	0x05, 0	; 5
    13fe:	2c 9a       	sbi	0x05, 4	; 5
    1400:	8f e1       	ldi	r24, 0x1F	; 31
    1402:	9e e4       	ldi	r25, 0x4E	; 78
    1404:	01 97       	sbiw	r24, 0x01	; 1
    1406:	f1 f7       	brne	.-4      	; 0x1404 <st7735_init+0x8>
    1408:	00 c0       	rjmp	.+0      	; 0x140a <st7735_init+0xe>
    140a:	00 00       	nop
    140c:	2c 98       	cbi	0x05, 4	; 5
    140e:	8f e1       	ldi	r24, 0x1F	; 31
    1410:	9e e4       	ldi	r25, 0x4E	; 78
    1412:	01 97       	sbiw	r24, 0x01	; 1
    1414:	f1 f7       	brne	.-4      	; 0x1412 <st7735_init+0x16>
    1416:	00 c0       	rjmp	.+0      	; 0x1418 <st7735_init+0x1c>
    1418:	00 00       	nop
    141a:	2c 9a       	sbi	0x05, 4	; 5
    141c:	8f e1       	ldi	r24, 0x1F	; 31
    141e:	9e e4       	ldi	r25, 0x4E	; 78
    1420:	01 97       	sbiw	r24, 0x01	; 1
    1422:	f1 f7       	brne	.-4      	; 0x1420 <st7735_init+0x24>
    1424:	00 c0       	rjmp	.+0      	; 0x1426 <st7735_init+0x2a>
    1426:	00 00       	nop
    1428:	2a 98       	cbi	0x05, 2	; 5
    142a:	81 e0       	ldi	r24, 0x01	; 1
    142c:	0e 94 c5 09 	call	0x138a	; 0x138a <spi_sendbyte>
    1430:	9f ef       	ldi	r25, 0xFF	; 255
    1432:	22 e5       	ldi	r18, 0x52	; 82
    1434:	87 e0       	ldi	r24, 0x07	; 7
    1436:	91 50       	subi	r25, 0x01	; 1
    1438:	20 40       	sbci	r18, 0x00	; 0
    143a:	80 40       	sbci	r24, 0x00	; 0
    143c:	e1 f7       	brne	.-8      	; 0x1436 <st7735_init+0x3a>
    143e:	00 c0       	rjmp	.+0      	; 0x1440 <st7735_init+0x44>
    1440:	00 00       	nop
    1442:	2a 98       	cbi	0x05, 2	; 5
    1444:	81 e1       	ldi	r24, 0x11	; 17
    1446:	0e 94 c5 09 	call	0x138a	; 0x138a <spi_sendbyte>
    144a:	9f ef       	ldi	r25, 0xFF	; 255
    144c:	29 e6       	ldi	r18, 0x69	; 105
    144e:	88 e1       	ldi	r24, 0x18	; 24
    1450:	91 50       	subi	r25, 0x01	; 1
    1452:	20 40       	sbci	r18, 0x00	; 0
    1454:	80 40       	sbci	r24, 0x00	; 0
    1456:	e1 f7       	brne	.-8      	; 0x1450 <st7735_init+0x54>
    1458:	00 c0       	rjmp	.+0      	; 0x145a <st7735_init+0x5e>
    145a:	00 00       	nop
    145c:	2a 98       	cbi	0x05, 2	; 5
    145e:	81 eb       	ldi	r24, 0xB1	; 177
    1460:	0e 94 c5 09 	call	0x138a	; 0x138a <spi_sendbyte>
    1464:	43 e0       	ldi	r20, 0x03	; 3
    1466:	50 e0       	ldi	r21, 0x00	; 0
    1468:	60 e0       	ldi	r22, 0x00	; 0
    146a:	70 e0       	ldi	r23, 0x00	; 0
    146c:	89 e4       	ldi	r24, 0x49	; 73
    146e:	92 e0       	ldi	r25, 0x02	; 2
    1470:	0e 94 cf 09 	call	0x139e	; 0x139e <st7735_multiply_send>
    1474:	2a 98       	cbi	0x05, 2	; 5
    1476:	84 eb       	ldi	r24, 0xB4	; 180
    1478:	0e 94 c5 09 	call	0x138a	; 0x138a <spi_sendbyte>
    147c:	2a 9a       	sbi	0x05, 2	; 5
    147e:	87 e0       	ldi	r24, 0x07	; 7
    1480:	0e 94 c5 09 	call	0x138a	; 0x138a <spi_sendbyte>
    1484:	2a 98       	cbi	0x05, 2	; 5
    1486:	80 ec       	ldi	r24, 0xC0	; 192
    1488:	0e 94 c5 09 	call	0x138a	; 0x138a <spi_sendbyte>
    148c:	43 e0       	ldi	r20, 0x03	; 3
    148e:	50 e0       	ldi	r21, 0x00	; 0
    1490:	60 e0       	ldi	r22, 0x00	; 0
    1492:	70 e0       	ldi	r23, 0x00	; 0
    1494:	86 e4       	ldi	r24, 0x46	; 70
    1496:	92 e0       	ldi	r25, 0x02	; 2
    1498:	0e 94 cf 09 	call	0x139e	; 0x139e <st7735_multiply_send>
    149c:	2a 98       	cbi	0x05, 2	; 5
    149e:	85 ec       	ldi	r24, 0xC5	; 197
    14a0:	0e 94 c5 09 	call	0x138a	; 0x138a <spi_sendbyte>
    14a4:	2a 9a       	sbi	0x05, 2	; 5
    14a6:	8e e0       	ldi	r24, 0x0E	; 14
    14a8:	0e 94 c5 09 	call	0x138a	; 0x138a <spi_sendbyte>
    14ac:	2a 98       	cbi	0x05, 2	; 5
    14ae:	81 e2       	ldi	r24, 0x21	; 33
    14b0:	0e 94 c5 09 	call	0x138a	; 0x138a <spi_sendbyte>
    14b4:	2a 98       	cbi	0x05, 2	; 5
    14b6:	86 e3       	ldi	r24, 0x36	; 54
    14b8:	0e 94 c5 09 	call	0x138a	; 0x138a <spi_sendbyte>
    14bc:	2a 9a       	sbi	0x05, 2	; 5
    14be:	88 e6       	ldi	r24, 0x68	; 104
    14c0:	0e 94 c5 09 	call	0x138a	; 0x138a <spi_sendbyte>
    14c4:	2a 98       	cbi	0x05, 2	; 5
    14c6:	8a e3       	ldi	r24, 0x3A	; 58
    14c8:	0e 94 c5 09 	call	0x138a	; 0x138a <spi_sendbyte>
    14cc:	2a 9a       	sbi	0x05, 2	; 5
    14ce:	85 e0       	ldi	r24, 0x05	; 5
    14d0:	0e 94 c5 09 	call	0x138a	; 0x138a <spi_sendbyte>
    14d4:	2a 98       	cbi	0x05, 2	; 5
    14d6:	80 ee       	ldi	r24, 0xE0	; 224
    14d8:	0e 94 c5 09 	call	0x138a	; 0x138a <spi_sendbyte>
    14dc:	40 e1       	ldi	r20, 0x10	; 16
    14de:	50 e0       	ldi	r21, 0x00	; 0
    14e0:	60 e0       	ldi	r22, 0x00	; 0
    14e2:	70 e0       	ldi	r23, 0x00	; 0
    14e4:	86 e3       	ldi	r24, 0x36	; 54
    14e6:	92 e0       	ldi	r25, 0x02	; 2
    14e8:	0e 94 cf 09 	call	0x139e	; 0x139e <st7735_multiply_send>
    14ec:	2a 98       	cbi	0x05, 2	; 5
    14ee:	81 ee       	ldi	r24, 0xE1	; 225
    14f0:	0e 94 c5 09 	call	0x138a	; 0x138a <spi_sendbyte>
    14f4:	40 e1       	ldi	r20, 0x10	; 16
    14f6:	50 e0       	ldi	r21, 0x00	; 0
    14f8:	60 e0       	ldi	r22, 0x00	; 0
    14fa:	70 e0       	ldi	r23, 0x00	; 0
    14fc:	86 e2       	ldi	r24, 0x26	; 38
    14fe:	92 e0       	ldi	r25, 0x02	; 2
    1500:	0e 94 cf 09 	call	0x139e	; 0x139e <st7735_multiply_send>
    1504:	2a 98       	cbi	0x05, 2	; 5
    1506:	83 e1       	ldi	r24, 0x13	; 19
    1508:	0e 94 c5 09 	call	0x138a	; 0x138a <spi_sendbyte>
    150c:	9f ef       	ldi	r25, 0xFF	; 255
    150e:	21 ee       	ldi	r18, 0xE1	; 225
    1510:	84 e0       	ldi	r24, 0x04	; 4
    1512:	91 50       	subi	r25, 0x01	; 1
    1514:	20 40       	sbci	r18, 0x00	; 0
    1516:	80 40       	sbci	r24, 0x00	; 0
    1518:	e1 f7       	brne	.-8      	; 0x1512 <st7735_init+0x116>
    151a:	00 c0       	rjmp	.+0      	; 0x151c <st7735_init+0x120>
    151c:	00 00       	nop
    151e:	2a 98       	cbi	0x05, 2	; 5
    1520:	89 e2       	ldi	r24, 0x29	; 41
    1522:	0e 94 c5 09 	call	0x138a	; 0x138a <spi_sendbyte>
    1526:	9f ef       	ldi	r25, 0xFF	; 255
    1528:	21 ee       	ldi	r18, 0xE1	; 225
    152a:	84 e0       	ldi	r24, 0x04	; 4
    152c:	91 50       	subi	r25, 0x01	; 1
    152e:	20 40       	sbci	r18, 0x00	; 0
    1530:	80 40       	sbci	r24, 0x00	; 0
    1532:	e1 f7       	brne	.-8      	; 0x152c <st7735_init+0x130>
    1534:	00 c0       	rjmp	.+0      	; 0x1536 <st7735_init+0x13a>
    1536:	00 00       	nop
    1538:	28 9a       	sbi	0x05, 0	; 5
    153a:	08 95       	ret

0000153c <setXY>:
    153c:	cf 92       	push	r12
    153e:	df 92       	push	r13
    1540:	ef 92       	push	r14
    1542:	ff 92       	push	r15
    1544:	0f 93       	push	r16
    1546:	1f 93       	push	r17
    1548:	cf 93       	push	r28
    154a:	df 93       	push	r29
    154c:	ec 01       	movw	r28, r24
    154e:	6b 01       	movw	r12, r22
    1550:	8a 01       	movw	r16, r20
    1552:	79 01       	movw	r14, r18
    1554:	2a 98       	cbi	0x05, 2	; 5
    1556:	8b e2       	ldi	r24, 0x2B	; 43
    1558:	0e 94 c5 09 	call	0x138a	; 0x138a <spi_sendbyte>
    155c:	2a 9a       	sbi	0x05, 2	; 5
    155e:	c8 01       	movw	r24, r16
    1560:	4a 96       	adiw	r24, 0x1a	; 26
    1562:	89 2f       	mov	r24, r25
    1564:	0e 94 c5 09 	call	0x138a	; 0x138a <spi_sendbyte>
    1568:	2a 9a       	sbi	0x05, 2	; 5
    156a:	8a e1       	ldi	r24, 0x1A	; 26
    156c:	80 0f       	add	r24, r16
    156e:	0e 94 c5 09 	call	0x138a	; 0x138a <spi_sendbyte>
    1572:	2a 9a       	sbi	0x05, 2	; 5
    1574:	c7 01       	movw	r24, r14
    1576:	49 96       	adiw	r24, 0x19	; 25
    1578:	80 0f       	add	r24, r16
    157a:	91 1f       	adc	r25, r17
    157c:	89 2f       	mov	r24, r25
    157e:	0e 94 c5 09 	call	0x138a	; 0x138a <spi_sendbyte>
    1582:	2a 9a       	sbi	0x05, 2	; 5
    1584:	89 e1       	ldi	r24, 0x19	; 25
    1586:	8e 0d       	add	r24, r14
    1588:	80 0f       	add	r24, r16
    158a:	0e 94 c5 09 	call	0x138a	; 0x138a <spi_sendbyte>
    158e:	2a 98       	cbi	0x05, 2	; 5
    1590:	8a e2       	ldi	r24, 0x2A	; 42
    1592:	0e 94 c5 09 	call	0x138a	; 0x138a <spi_sendbyte>
    1596:	2a 9a       	sbi	0x05, 2	; 5
    1598:	ce 01       	movw	r24, r28
    159a:	01 96       	adiw	r24, 0x01	; 1
    159c:	89 2f       	mov	r24, r25
    159e:	0e 94 c5 09 	call	0x138a	; 0x138a <spi_sendbyte>
    15a2:	2a 9a       	sbi	0x05, 2	; 5
    15a4:	8c 2f       	mov	r24, r28
    15a6:	8f 5f       	subi	r24, 0xFF	; 255
    15a8:	0e 94 c5 09 	call	0x138a	; 0x138a <spi_sendbyte>
    15ac:	2a 9a       	sbi	0x05, 2	; 5
    15ae:	ce 01       	movw	r24, r28
    15b0:	8c 0d       	add	r24, r12
    15b2:	9d 1d       	adc	r25, r13
    15b4:	89 2f       	mov	r24, r25
    15b6:	0e 94 c5 09 	call	0x138a	; 0x138a <spi_sendbyte>
    15ba:	2a 9a       	sbi	0x05, 2	; 5
    15bc:	8c 2f       	mov	r24, r28
    15be:	8c 0d       	add	r24, r12
    15c0:	df 91       	pop	r29
    15c2:	cf 91       	pop	r28
    15c4:	1f 91       	pop	r17
    15c6:	0f 91       	pop	r16
    15c8:	ff 90       	pop	r15
    15ca:	ef 90       	pop	r14
    15cc:	df 90       	pop	r13
    15ce:	cf 90       	pop	r12
    15d0:	0c 94 c5 09 	jmp	0x138a	; 0x138a <spi_sendbyte>

000015d4 <draw_rect>:
    15d4:	8f 92       	push	r8
    15d6:	9f 92       	push	r9
    15d8:	af 92       	push	r10
    15da:	bf 92       	push	r11
    15dc:	cf 92       	push	r12
    15de:	df 92       	push	r13
    15e0:	ef 92       	push	r14
    15e2:	ff 92       	push	r15
    15e4:	0f 93       	push	r16
    15e6:	1f 93       	push	r17
    15e8:	6a 01       	movw	r12, r20
    15ea:	79 01       	movw	r14, r18
    15ec:	28 98       	cbi	0x05, 0	; 5
    15ee:	ab 01       	movw	r20, r22
    15f0:	b6 01       	movw	r22, r12
    15f2:	0e 94 9e 0a 	call	0x153c	; 0x153c <setXY>
    15f6:	2a 98       	cbi	0x05, 2	; 5
    15f8:	8c e2       	ldi	r24, 0x2C	; 44
    15fa:	0e 94 c5 09 	call	0x138a	; 0x138a <spi_sendbyte>
    15fe:	2a 9a       	sbi	0x05, 2	; 5
    1600:	ce 9c       	mul	r12, r14
    1602:	c0 01       	movw	r24, r0
    1604:	cf 9c       	mul	r12, r15
    1606:	90 0d       	add	r25, r0
    1608:	de 9c       	mul	r13, r14
    160a:	90 0d       	add	r25, r0
    160c:	11 24       	eor	r1, r1
    160e:	4c 01       	movw	r8, r24
    1610:	a1 2c       	mov	r10, r1
    1612:	b1 2c       	mov	r11, r1
    1614:	89 2b       	or	r24, r25
    1616:	a9 f0       	breq	.+42     	; 0x1642 <draw_rect+0x6e>
    1618:	c1 2c       	mov	r12, r1
    161a:	d1 2c       	mov	r13, r1
    161c:	76 01       	movw	r14, r12
    161e:	2a 9a       	sbi	0x05, 2	; 5
    1620:	81 2f       	mov	r24, r17
    1622:	0e 94 c5 09 	call	0x138a	; 0x138a <spi_sendbyte>
    1626:	2a 9a       	sbi	0x05, 2	; 5
    1628:	80 2f       	mov	r24, r16
    162a:	0e 94 c5 09 	call	0x138a	; 0x138a <spi_sendbyte>
    162e:	8f ef       	ldi	r24, 0xFF	; 255
    1630:	c8 1a       	sub	r12, r24
    1632:	d8 0a       	sbc	r13, r24
    1634:	e8 0a       	sbc	r14, r24
    1636:	f8 0a       	sbc	r15, r24
    1638:	c8 14       	cp	r12, r8
    163a:	d9 04       	cpc	r13, r9
    163c:	ea 04       	cpc	r14, r10
    163e:	fb 04       	cpc	r15, r11
    1640:	70 f3       	brcs	.-36     	; 0x161e <draw_rect+0x4a>
    1642:	28 9a       	sbi	0x05, 0	; 5
    1644:	1f 91       	pop	r17
    1646:	0f 91       	pop	r16
    1648:	ff 90       	pop	r15
    164a:	ef 90       	pop	r14
    164c:	df 90       	pop	r13
    164e:	cf 90       	pop	r12
    1650:	bf 90       	pop	r11
    1652:	af 90       	pop	r10
    1654:	9f 90       	pop	r9
    1656:	8f 90       	pop	r8
    1658:	08 95       	ret

0000165a <background>:
    165a:	0f 93       	push	r16
    165c:	1f 93       	push	r17
    165e:	8c 01       	movw	r16, r24
    1660:	20 e5       	ldi	r18, 0x50	; 80
    1662:	30 e0       	ldi	r19, 0x00	; 0
    1664:	40 ea       	ldi	r20, 0xA0	; 160
    1666:	50 e0       	ldi	r21, 0x00	; 0
    1668:	60 e0       	ldi	r22, 0x00	; 0
    166a:	70 e0       	ldi	r23, 0x00	; 0
    166c:	80 e0       	ldi	r24, 0x00	; 0
    166e:	90 e0       	ldi	r25, 0x00	; 0
    1670:	0e 94 ea 0a 	call	0x15d4	; 0x15d4 <draw_rect>
    1674:	1f 91       	pop	r17
    1676:	0f 91       	pop	r16
    1678:	08 95       	ret

0000167a <draw_char>:


void draw_char(uint16_t xstart, uint16_t ystart, const char letter, uint16_t bcolor,uint16_t fcolor,uint8_t *font) {
    167a:	2f 92       	push	r2
    167c:	3f 92       	push	r3
    167e:	4f 92       	push	r4
    1680:	5f 92       	push	r5
    1682:	6f 92       	push	r6
    1684:	7f 92       	push	r7
    1686:	8f 92       	push	r8
    1688:	9f 92       	push	r9
    168a:	af 92       	push	r10
    168c:	bf 92       	push	r11
    168e:	cf 92       	push	r12
    1690:	df 92       	push	r13
    1692:	ef 92       	push	r14
    1694:	ff 92       	push	r15
    1696:	0f 93       	push	r16
    1698:	1f 93       	push	r17
    169a:	cf 93       	push	r28
    169c:	df 93       	push	r29
    169e:	cd b7       	in	r28, 0x3d	; 61
    16a0:	de b7       	in	r29, 0x3e	; 62
    16a2:	c8 59       	subi	r28, 0x98	; 152
    16a4:	d1 40       	sbci	r29, 0x01	; 1
    16a6:	0f b6       	in	r0, 0x3f	; 63
    16a8:	f8 94       	cli
    16aa:	de bf       	out	0x3e, r29	; 62
    16ac:	0f be       	out	0x3f, r0	; 63
    16ae:	cd bf       	out	0x3d, r28	; 61
    16b0:	52 2e       	mov	r5, r18
    16b2:	43 2e       	mov	r4, r19
	
	// –ü–æ–ª—É—á–∞–µ–º –ø–∞—Ä–∞–º–µ—Ç—Ä—ã —à—Ä–∏—Ñ—Ç–∞
	const uint8_t data_w = pgm_read_byte(font) / 8;     // —à–∏—Ä–∏–Ω–∞ –≤ –±–∞–π—Ç–∞—Ö
    16b4:	f7 01       	movw	r30, r14
    16b6:	24 91       	lpm	r18, Z
    16b8:	26 95       	lsr	r18
    16ba:	26 95       	lsr	r18
    16bc:	26 95       	lsr	r18
	const uint8_t letter_height = pgm_read_byte(font + 1);  // –≤—ã—Å–æ—Ç–∞ —Å–∏–º–≤–æ–ª–∞
    16be:	31 96       	adiw	r30, 0x01	; 1
    16c0:	34 91       	lpm	r19, Z
	const uint8_t letter_width = data_w * 8;            // —à–∏—Ä–∏–Ω–∞ —Å–∏–º–≤–æ–ª–∞ –≤ –ø–∏–∫—Å–µ–ª—è—Ö
    16c2:	22 2e       	mov	r2, r18
    16c4:	22 0c       	add	r2, r2
    16c6:	22 0c       	add	r2, r2
    16c8:	22 0c       	add	r2, r2
	const uint8_t ascii_offset = pgm_read_byte(font + 2);  // —Å–º–µ—â–µ–Ω–∏–µ ASCII
    16ca:	31 96       	adiw	r30, 0x01	; 1
    16cc:	e4 91       	lpm	r30, Z
	
	// –í—ã—á–∏—Å–ª—è–µ–º —Å–º–µ—â–µ–Ω–∏–µ —Å–∏–º–≤–æ–ª–∞ –≤ –º–∞—Å—Å–∏–≤–µ
	const uint16_t offset = (letter - ascii_offset) * letter_height * data_w + 4;
    16ce:	50 e0       	ldi	r21, 0x00	; 0
    16d0:	4e 1b       	sub	r20, r30
    16d2:	51 09       	sbc	r21, r1
    16d4:	a3 2f       	mov	r26, r19
    16d6:	b0 e0       	ldi	r27, 0x00	; 0
    16d8:	cb 56       	subi	r28, 0x6B	; 107
    16da:	de 4f       	sbci	r29, 0xFE	; 254
    16dc:	b9 83       	std	Y+1, r27	; 0x01
    16de:	a8 83       	st	Y, r26
    16e0:	c5 59       	subi	r28, 0x95	; 149
    16e2:	d1 40       	sbci	r29, 0x01	; 1
    16e4:	4a 9f       	mul	r20, r26
    16e6:	f0 01       	movw	r30, r0
    16e8:	4b 9f       	mul	r20, r27
    16ea:	f0 0d       	add	r31, r0
    16ec:	5a 9f       	mul	r21, r26
    16ee:	f0 0d       	add	r31, r0
    16f0:	11 24       	eor	r1, r1
    16f2:	42 2f       	mov	r20, r18
    16f4:	50 e0       	ldi	r21, 0x00	; 0
    16f6:	c9 56       	subi	r28, 0x69	; 105
    16f8:	de 4f       	sbci	r29, 0xFE	; 254
    16fa:	59 83       	std	Y+1, r21	; 0x01
    16fc:	48 83       	st	Y, r20
    16fe:	c7 59       	subi	r28, 0x97	; 151
    1700:	d1 40       	sbci	r29, 0x01	; 1
    1702:	da 01       	movw	r26, r20
    1704:	ea 9f       	mul	r30, r26
    1706:	a0 01       	movw	r20, r0
    1708:	eb 9f       	mul	r30, r27
    170a:	50 0d       	add	r21, r0
    170c:	fa 9f       	mul	r31, r26
    170e:	50 0d       	add	r21, r0
    1710:	11 24       	eor	r1, r1
    1712:	fa 01       	movw	r30, r20
    1714:	34 96       	adiw	r30, 0x04	; 4
	const uint16_t lettersize = letter_height * data_w;
    1716:	32 9f       	mul	r19, r18
    1718:	90 01       	movw	r18, r0
    171a:	11 24       	eor	r1, r1
	
	// –ë—É—Ñ–µ—Ä –¥–ª—è —Ö—Ä–∞–Ω–µ–Ω–∏—è –¥–∞–Ω–Ω—ã—Ö —Å–∏–º–≤–æ–ª–∞
	uint8_t letter_buf[400] = {0};
    171c:	ae 01       	movw	r20, r28
    171e:	4f 5f       	subi	r20, 0xFF	; 255
    1720:	5f 4f       	sbci	r21, 0xFF	; 255
    1722:	cf 56       	subi	r28, 0x6F	; 111
    1724:	de 4f       	sbci	r29, 0xFE	; 254
    1726:	59 83       	std	Y+1, r21	; 0x01
    1728:	48 83       	st	Y, r20
    172a:	c1 59       	subi	r28, 0x91	; 145
    172c:	d1 40       	sbci	r29, 0x01	; 1
    172e:	a0 e9       	ldi	r26, 0x90	; 144
    1730:	ca 2e       	mov	r12, r26
    1732:	dd 24       	eor	r13, r13
    1734:	d3 94       	inc	r13
    1736:	da 01       	movw	r26, r20
    1738:	a6 01       	movw	r20, r12
    173a:	1d 92       	st	X+, r1
    173c:	41 50       	subi	r20, 0x01	; 1
    173e:	50 40       	sbci	r21, 0x00	; 0
    1740:	e1 f7       	brne	.-8      	; 0x173a <draw_char+0xc0>
	
	// –°—á–∏—Ç—ã–≤–∞–µ–º –¥–∞–Ω–Ω—ã–µ —Å–∏–º–≤–æ–ª–∞ –∏–∑ –ø–∞–º—è—Ç–∏
	for(uint16_t i = 0; i < lettersize; i++) {
    1742:	21 15       	cp	r18, r1
    1744:	31 05       	cpc	r19, r1
    1746:	61 f0       	breq	.+24     	; 0x1760 <draw_char+0xe6>
    1748:	ee 0d       	add	r30, r14
    174a:	ff 1d       	adc	r31, r15
    174c:	de 01       	movw	r26, r28
    174e:	11 96       	adiw	r26, 0x01	; 1
    1750:	2a 0f       	add	r18, r26
    1752:	3b 1f       	adc	r19, r27
		letter_buf[i] = pgm_read_byte(font + offset + i);
    1754:	44 91       	lpm	r20, Z
    1756:	4d 93       	st	X+, r20
    1758:	31 96       	adiw	r30, 0x01	; 1
	
	// –ë—É—Ñ–µ—Ä –¥–ª—è —Ö—Ä–∞–Ω–µ–Ω–∏—è –¥–∞–Ω–Ω—ã—Ö —Å–∏–º–≤–æ–ª–∞
	uint8_t letter_buf[400] = {0};
	
	// –°—á–∏—Ç—ã–≤–∞–µ–º –¥–∞–Ω–Ω—ã–µ —Å–∏–º–≤–æ–ª–∞ –∏–∑ –ø–∞–º—è—Ç–∏
	for(uint16_t i = 0; i < lettersize; i++) {
    175a:	a2 17       	cp	r26, r18
    175c:	b3 07       	cpc	r27, r19
    175e:	d1 f7       	brne	.-12     	; 0x1754 <draw_char+0xda>
		letter_buf[i] = pgm_read_byte(font + offset + i);
	}
	
	// –£—Å—Ç–∞–Ω–∞–≤–ª–∏–≤–∞–µ–º –ø–æ–∑–∏—Ü–∏—é –∏ —Ä–µ–∂–∏–º –∑–∞–ø–∏—Å–∏
	START_Tx;
    1760:	28 98       	cbi	0x05, 0	; 5
	setXY(xstart, letter_width, ystart, letter_height);  // –£–∫–∞–∑—ã–≤–∞–µ–º —Ä–µ–∞–ª—å–Ω—ã–µ —Ä–∞–∑–º–µ—Ä—ã —Å–∏–º–≤–æ–ª–∞
    1762:	a2 2c       	mov	r10, r2
    1764:	b1 2c       	mov	r11, r1
    1766:	cb 56       	subi	r28, 0x6B	; 107
    1768:	de 4f       	sbci	r29, 0xFE	; 254
    176a:	28 81       	ld	r18, Y
    176c:	39 81       	ldd	r19, Y+1	; 0x01
    176e:	c5 59       	subi	r28, 0x95	; 149
    1770:	d1 40       	sbci	r29, 0x01	; 1
    1772:	ab 01       	movw	r20, r22
    1774:	b5 01       	movw	r22, r10
    1776:	0e 94 9e 0a 	call	0x153c	; 0x153c <setXY>
SET_BIT(SPI_DDR,(1<<RESET)); // —Å–±—Ä–æ—Å
SET_BIT(SPI_DDR,(1<<CS));    // —á–∏–ø —Å–µ–ª–µ–∫—Ç
}

void send_command(uint8_t byte){
	ST7735_COMMAND;
    177a:	2a 98       	cbi	0x05, 2	; 5
	spi_sendbyte(byte);
    177c:	8c e2       	ldi	r24, 0x2C	; 44
    177e:	0e 94 c5 09 	call	0x138a	; 0x138a <spi_sendbyte>
	
	// –£—Å—Ç–∞–Ω–∞–≤–ª–∏–≤–∞–µ–º –ø–æ–∑–∏—Ü–∏—é –∏ —Ä–µ–∂–∏–º –∑–∞–ø–∏—Å–∏
	START_Tx;
	setXY(xstart, letter_width, ystart, letter_height);  // –£–∫–∞–∑—ã–≤–∞–µ–º —Ä–µ–∞–ª—å–Ω—ã–µ —Ä–∞–∑–º–µ—Ä—ã —Å–∏–º–≤–æ–ª–∞
	send_command(ST7735_RAMWR);
	ST7735_DATA;
    1782:	2a 9a       	sbi	0x05, 2	; 5
	
	for(uint16_t y = 0; y < letter_height; y++) {
    1784:	cb 56       	subi	r28, 0x6B	; 107
    1786:	de 4f       	sbci	r29, 0xFE	; 254
    1788:	88 81       	ld	r24, Y
    178a:	99 81       	ldd	r25, Y+1	; 0x01
    178c:	c5 59       	subi	r28, 0x95	; 149
    178e:	d1 40       	sbci	r29, 0x01	; 1
    1790:	89 2b       	or	r24, r25
    1792:	09 f4       	brne	.+2      	; 0x1796 <draw_char+0x11c>
    1794:	64 c0       	rjmp	.+200    	; 0x185e <draw_char+0x1e4>
		for(uint16_t x = 0; x < letter_width; x += 8) {
			uint8_t data = letter_buf[y * data_w + x / 8];
			for(uint8_t bit = 0; bit < 8; bit++) {
				if (x + bit >= letter_width) break;			// –ó–∞—â–∏—Ç–∞ –æ—Ç –≤—ã—Ö–æ–¥–∞ –∑–∞ –≥—Ä–∞–Ω–∏—Ü—ã
				spi_sendbyte((data & 0x80) ? (fcolor >> 8) : (bcolor >> 8));
    1796:	cd 56       	subi	r28, 0x6D	; 109
    1798:	de 4f       	sbci	r29, 0xFE	; 254
    179a:	19 82       	std	Y+1, r1	; 0x01
    179c:	18 82       	st	Y, r1
    179e:	c3 59       	subi	r28, 0x93	; 147
    17a0:	d1 40       	sbci	r29, 0x01	; 1
    17a2:	61 2c       	mov	r6, r1
    17a4:	71 2c       	mov	r7, r1
	setXY(xstart, letter_width, ystart, letter_height);  // –£–∫–∞–∑—ã–≤–∞–µ–º —Ä–µ–∞–ª—å–Ω—ã–µ —Ä–∞–∑–º–µ—Ä—ã —Å–∏–º–≤–æ–ª–∞
	send_command(ST7735_RAMWR);
	ST7735_DATA;
	
	for(uint16_t y = 0; y < letter_height; y++) {
		for(uint16_t x = 0; x < letter_width; x += 8) {
    17a6:	22 20       	and	r2, r2
    17a8:	c9 f1       	breq	.+114    	; 0x181c <draw_char+0x1a2>
    17aa:	e1 2c       	mov	r14, r1
    17ac:	f1 2c       	mov	r15, r1
			uint8_t data = letter_buf[y * data_w + x / 8];
    17ae:	88 24       	eor	r8, r8
    17b0:	83 94       	inc	r8
    17b2:	91 2c       	mov	r9, r1
    17b4:	8c 0e       	add	r8, r28
    17b6:	9d 1e       	adc	r9, r29
    17b8:	cd 56       	subi	r28, 0x6D	; 109
    17ba:	de 4f       	sbci	r29, 0xFE	; 254
    17bc:	88 81       	ld	r24, Y
    17be:	99 81       	ldd	r25, Y+1	; 0x01
    17c0:	c3 59       	subi	r28, 0x93	; 147
    17c2:	d1 40       	sbci	r29, 0x01	; 1
    17c4:	88 0e       	add	r8, r24
    17c6:	99 1e       	adc	r9, r25
    17c8:	f7 01       	movw	r30, r14
    17ca:	f6 95       	lsr	r31
    17cc:	e7 95       	ror	r30
    17ce:	f6 95       	lsr	r31
    17d0:	e7 95       	ror	r30
    17d2:	f6 95       	lsr	r31
    17d4:	e7 95       	ror	r30
    17d6:	e8 0d       	add	r30, r8
    17d8:	f9 1d       	adc	r31, r9
    17da:	30 80       	ld	r3, Z
    17dc:	67 01       	movw	r12, r14
    17de:	98 e0       	ldi	r25, 0x08	; 8
    17e0:	c9 0e       	add	r12, r25
    17e2:	d1 1c       	adc	r13, r1
    17e4:	0d c0       	rjmp	.+26     	; 0x1800 <draw_char+0x186>
			for(uint8_t bit = 0; bit < 8; bit++) {
				if (x + bit >= letter_width) break;			// –ó–∞—â–∏—Ç–∞ –æ—Ç –≤—ã—Ö–æ–¥–∞ –∑–∞ –≥—Ä–∞–Ω–∏—Ü—ã
				spi_sendbyte((data & 0x80) ? (fcolor >> 8) : (bcolor >> 8));
    17e6:	84 2d       	mov	r24, r4
    17e8:	0e 94 c5 09 	call	0x138a	; 0x138a <spi_sendbyte>
				spi_sendbyte((data & 0x80) ? fcolor : bcolor);
    17ec:	85 2d       	mov	r24, r5
    17ee:	0e 94 c5 09 	call	0x138a	; 0x138a <spi_sendbyte>
				data <<= 1;
    17f2:	33 0c       	add	r3, r3
    17f4:	af ef       	ldi	r26, 0xFF	; 255
    17f6:	ea 1a       	sub	r14, r26
    17f8:	fa 0a       	sbc	r15, r26
	ST7735_DATA;
	
	for(uint16_t y = 0; y < letter_height; y++) {
		for(uint16_t x = 0; x < letter_width; x += 8) {
			uint8_t data = letter_buf[y * data_w + x / 8];
			for(uint8_t bit = 0; bit < 8; bit++) {
    17fa:	ce 14       	cp	r12, r14
    17fc:	df 04       	cpc	r13, r15
    17fe:	51 f0       	breq	.+20     	; 0x1814 <draw_char+0x19a>
				if (x + bit >= letter_width) break;			// –ó–∞—â–∏—Ç–∞ –æ—Ç –≤—ã—Ö–æ–¥–∞ –∑–∞ –≥—Ä–∞–Ω–∏—Ü—ã
    1800:	ea 14       	cp	r14, r10
    1802:	fb 04       	cpc	r15, r11
    1804:	38 f4       	brcc	.+14     	; 0x1814 <draw_char+0x19a>
				spi_sendbyte((data & 0x80) ? (fcolor >> 8) : (bcolor >> 8));
    1806:	37 fe       	sbrs	r3, 7
    1808:	ee cf       	rjmp	.-36     	; 0x17e6 <draw_char+0x16c>
    180a:	81 2f       	mov	r24, r17
    180c:	0e 94 c5 09 	call	0x138a	; 0x138a <spi_sendbyte>
				spi_sendbyte((data & 0x80) ? fcolor : bcolor);
    1810:	80 2f       	mov	r24, r16
    1812:	ed cf       	rjmp	.-38     	; 0x17ee <draw_char+0x174>
    1814:	76 01       	movw	r14, r12
	setXY(xstart, letter_width, ystart, letter_height);  // –£–∫–∞–∑—ã–≤–∞–µ–º —Ä–µ–∞–ª—å–Ω—ã–µ —Ä–∞–∑–º–µ—Ä—ã —Å–∏–º–≤–æ–ª–∞
	send_command(ST7735_RAMWR);
	ST7735_DATA;
	
	for(uint16_t y = 0; y < letter_height; y++) {
		for(uint16_t x = 0; x < letter_width; x += 8) {
    1816:	ca 14       	cp	r12, r10
    1818:	db 04       	cpc	r13, r11
    181a:	b0 f2       	brcs	.-84     	; 0x17c8 <draw_char+0x14e>
	START_Tx;
	setXY(xstart, letter_width, ystart, letter_height);  // –£–∫–∞–∑—ã–≤–∞–µ–º —Ä–µ–∞–ª—å–Ω—ã–µ —Ä–∞–∑–º–µ—Ä—ã —Å–∏–º–≤–æ–ª–∞
	send_command(ST7735_RAMWR);
	ST7735_DATA;
	
	for(uint16_t y = 0; y < letter_height; y++) {
    181c:	bf ef       	ldi	r27, 0xFF	; 255
    181e:	6b 1a       	sub	r6, r27
    1820:	7b 0a       	sbc	r7, r27
    1822:	cd 56       	subi	r28, 0x6D	; 109
    1824:	de 4f       	sbci	r29, 0xFE	; 254
    1826:	e8 81       	ld	r30, Y
    1828:	f9 81       	ldd	r31, Y+1	; 0x01
    182a:	c3 59       	subi	r28, 0x93	; 147
    182c:	d1 40       	sbci	r29, 0x01	; 1
    182e:	c9 56       	subi	r28, 0x69	; 105
    1830:	de 4f       	sbci	r29, 0xFE	; 254
    1832:	28 81       	ld	r18, Y
    1834:	39 81       	ldd	r19, Y+1	; 0x01
    1836:	c7 59       	subi	r28, 0x97	; 151
    1838:	d1 40       	sbci	r29, 0x01	; 1
    183a:	e2 0f       	add	r30, r18
    183c:	f3 1f       	adc	r31, r19
    183e:	cd 56       	subi	r28, 0x6D	; 109
    1840:	de 4f       	sbci	r29, 0xFE	; 254
    1842:	f9 83       	std	Y+1, r31	; 0x01
    1844:	e8 83       	st	Y, r30
    1846:	c3 59       	subi	r28, 0x93	; 147
    1848:	d1 40       	sbci	r29, 0x01	; 1
    184a:	cb 56       	subi	r28, 0x6B	; 107
    184c:	de 4f       	sbci	r29, 0xFE	; 254
    184e:	48 81       	ld	r20, Y
    1850:	59 81       	ldd	r21, Y+1	; 0x01
    1852:	c5 59       	subi	r28, 0x95	; 149
    1854:	d1 40       	sbci	r29, 0x01	; 1
    1856:	46 15       	cp	r20, r6
    1858:	57 05       	cpc	r21, r7
    185a:	09 f0       	breq	.+2      	; 0x185e <draw_char+0x1e4>
    185c:	a4 cf       	rjmp	.-184    	; 0x17a6 <draw_char+0x12c>
				data <<= 1;
			}
		}
	}
	
	STOP_Tx;
    185e:	28 9a       	sbi	0x05, 0	; 5
}
    1860:	c8 56       	subi	r28, 0x68	; 104
    1862:	de 4f       	sbci	r29, 0xFE	; 254
    1864:	0f b6       	in	r0, 0x3f	; 63
    1866:	f8 94       	cli
    1868:	de bf       	out	0x3e, r29	; 62
    186a:	0f be       	out	0x3f, r0	; 63
    186c:	cd bf       	out	0x3d, r28	; 61
    186e:	df 91       	pop	r29
    1870:	cf 91       	pop	r28
    1872:	1f 91       	pop	r17
    1874:	0f 91       	pop	r16
    1876:	ff 90       	pop	r15
    1878:	ef 90       	pop	r14
    187a:	df 90       	pop	r13
    187c:	cf 90       	pop	r12
    187e:	bf 90       	pop	r11
    1880:	af 90       	pop	r10
    1882:	9f 90       	pop	r9
    1884:	8f 90       	pop	r8
    1886:	7f 90       	pop	r7
    1888:	6f 90       	pop	r6
    188a:	5f 90       	pop	r5
    188c:	4f 90       	pop	r4
    188e:	3f 90       	pop	r3
    1890:	2f 90       	pop	r2
    1892:	08 95       	ret

00001894 <draw_string>:

void draw_string(uint16_t xpos, uint16_t ypos, const char *string, int8_t space, uint16_t bcolor,  uint16_t fcolor, uint8_t *font){
    1894:	2f 92       	push	r2
    1896:	3f 92       	push	r3
    1898:	4f 92       	push	r4
    189a:	5f 92       	push	r5
    189c:	6f 92       	push	r6
    189e:	7f 92       	push	r7
    18a0:	8f 92       	push	r8
    18a2:	9f 92       	push	r9
    18a4:	af 92       	push	r10
    18a6:	bf 92       	push	r11
    18a8:	cf 92       	push	r12
    18aa:	df 92       	push	r13
    18ac:	ef 92       	push	r14
    18ae:	ff 92       	push	r15
    18b0:	0f 93       	push	r16
    18b2:	1f 93       	push	r17
    18b4:	cf 93       	push	r28
    18b6:	df 93       	push	r29
    18b8:	ec 01       	movw	r28, r24
    18ba:	5b 01       	movw	r10, r22
    18bc:	fa 01       	movw	r30, r20
    18be:	28 01       	movw	r4, r16
    18c0:	47 01       	movw	r8, r14
	while(*string != 0) {
    18c2:	40 81       	ld	r20, Z
    18c4:	44 23       	and	r20, r20
    18c6:	d1 f0       	breq	.+52     	; 0x18fc <draw_string+0x68>
    18c8:	22 2e       	mov	r2, r18
    18ca:	22 0f       	add	r18, r18
    18cc:	33 08       	sbc	r3, r3
    18ce:	3f 01       	movw	r6, r30
    18d0:	2f ef       	ldi	r18, 0xFF	; 255
    18d2:	62 1a       	sub	r6, r18
    18d4:	72 0a       	sbc	r7, r18
		draw_char(xpos, ypos, *string++, bcolor, fcolor, font);
    18d6:	76 01       	movw	r14, r12
    18d8:	84 01       	movw	r16, r8
    18da:	92 01       	movw	r18, r4
    18dc:	b5 01       	movw	r22, r10
    18de:	ce 01       	movw	r24, r28
    18e0:	0e 94 3d 0b 	call	0x167a	; 0x167a <draw_char>
		xpos += (uint16_t)(pgm_read_byte(font) + space);
    18e4:	f6 01       	movw	r30, r12
    18e6:	84 91       	lpm	r24, Z
    18e8:	91 01       	movw	r18, r2
    18ea:	28 0f       	add	r18, r24
    18ec:	31 1d       	adc	r19, r1
    18ee:	c2 0f       	add	r28, r18
    18f0:	d3 1f       	adc	r29, r19
	
	STOP_Tx;
}

void draw_string(uint16_t xpos, uint16_t ypos, const char *string, int8_t space, uint16_t bcolor,  uint16_t fcolor, uint8_t *font){
	while(*string != 0) {
    18f2:	f3 01       	movw	r30, r6
    18f4:	41 91       	ld	r20, Z+
    18f6:	3f 01       	movw	r6, r30
    18f8:	41 11       	cpse	r20, r1
    18fa:	ed cf       	rjmp	.-38     	; 0x18d6 <draw_string+0x42>
		draw_char(xpos, ypos, *string++, bcolor, fcolor, font);
		xpos += (uint16_t)(pgm_read_byte(font) + space);
	}
}
    18fc:	df 91       	pop	r29
    18fe:	cf 91       	pop	r28
    1900:	1f 91       	pop	r17
    1902:	0f 91       	pop	r16
    1904:	ff 90       	pop	r15
    1906:	ef 90       	pop	r14
    1908:	df 90       	pop	r13
    190a:	cf 90       	pop	r12
    190c:	bf 90       	pop	r11
    190e:	af 90       	pop	r10
    1910:	9f 90       	pop	r9
    1912:	8f 90       	pop	r8
    1914:	7f 90       	pop	r7
    1916:	6f 90       	pop	r6
    1918:	5f 90       	pop	r5
    191a:	4f 90       	pop	r4
    191c:	3f 90       	pop	r3
    191e:	2f 90       	pop	r2
    1920:	08 95       	ret

00001922 <uart_init>:

void print_number(uint16_t number){
	char num_m[5]={0,};
	sprintf(num_m,"%d", number);
	print_string(num_m);
}
    1922:	88 e1       	ldi	r24, 0x18	; 24
    1924:	80 93 c1 00 	sts	0x00C1, r24	; 0x8000c1 <__TEXT_REGION_LENGTH__+0x7f80c1>
    1928:	86 e0       	ldi	r24, 0x06	; 6
    192a:	80 93 c2 00 	sts	0x00C2, r24	; 0x8000c2 <__TEXT_REGION_LENGTH__+0x7f80c2>
    192e:	87 e6       	ldi	r24, 0x67	; 103
    1930:	80 93 c4 00 	sts	0x00C4, r24	; 0x8000c4 <__TEXT_REGION_LENGTH__+0x7f80c4>
    1934:	10 92 c5 00 	sts	0x00C5, r1	; 0x8000c5 <__TEXT_REGION_LENGTH__+0x7f80c5>
    1938:	08 95       	ret

0000193a <print_string>:
    193a:	fc 01       	movw	r30, r24
    193c:	20 81       	ld	r18, Z
    193e:	22 23       	and	r18, r18
    1940:	51 f0       	breq	.+20     	; 0x1956 <print_string+0x1c>
    1942:	31 96       	adiw	r30, 0x01	; 1
    1944:	90 91 c0 00 	lds	r25, 0x00C0	; 0x8000c0 <__TEXT_REGION_LENGTH__+0x7f80c0>
    1948:	95 ff       	sbrs	r25, 5
    194a:	fc cf       	rjmp	.-8      	; 0x1944 <print_string+0xa>
    194c:	20 93 c6 00 	sts	0x00C6, r18	; 0x8000c6 <__TEXT_REGION_LENGTH__+0x7f80c6>
    1950:	21 91       	ld	r18, Z+
    1952:	21 11       	cpse	r18, r1
    1954:	f7 cf       	rjmp	.-18     	; 0x1944 <print_string+0xa>
    1956:	08 95       	ret

00001958 <print_hexnumber>:

void print_hexnumber(uint16_t number){
    1958:	cf 93       	push	r28
    195a:	df 93       	push	r29
    195c:	00 d0       	rcall	.+0      	; 0x195e <print_hexnumber+0x6>
    195e:	00 d0       	rcall	.+0      	; 0x1960 <print_hexnumber+0x8>
    1960:	1f 92       	push	r1
    1962:	cd b7       	in	r28, 0x3d	; 61
    1964:	de b7       	in	r29, 0x3e	; 62
	char num_m[5]={0,};
    1966:	fe 01       	movw	r30, r28
    1968:	31 96       	adiw	r30, 0x01	; 1
    196a:	25 e0       	ldi	r18, 0x05	; 5
    196c:	df 01       	movw	r26, r30
    196e:	1d 92       	st	X+, r1
    1970:	2a 95       	dec	r18
    1972:	e9 f7       	brne	.-6      	; 0x196e <print_hexnumber+0x16>
	sprintf(num_m,"%s%x","0x", number);
    1974:	9f 93       	push	r25
    1976:	8f 93       	push	r24
    1978:	8f e4       	ldi	r24, 0x4F	; 79
    197a:	92 e0       	ldi	r25, 0x02	; 2
    197c:	9f 93       	push	r25
    197e:	8f 93       	push	r24
    1980:	82 e5       	ldi	r24, 0x52	; 82
    1982:	92 e0       	ldi	r25, 0x02	; 2
    1984:	9f 93       	push	r25
    1986:	8f 93       	push	r24
    1988:	ff 93       	push	r31
    198a:	ef 93       	push	r30
    198c:	0e 94 f2 11 	call	0x23e4	; 0x23e4 <sprintf>
	while(!READ_BIT(UCSR0A,(1<<RXC0)));								//–æ–∂–∏–¥–∞–Ω–∏–µ –ø—Ä–∏—Ö–æ–¥–∞ –±–∞–π—Ç–∞
	return UDR0;										
}

void print_string(char *string){
	while(*string) uart_out(*string++);
    1990:	99 81       	ldd	r25, Y+1	; 0x01
    1992:	0f b6       	in	r0, 0x3f	; 63
    1994:	f8 94       	cli
    1996:	de bf       	out	0x3e, r29	; 62
    1998:	0f be       	out	0x3f, r0	; 63
    199a:	cd bf       	out	0x3d, r28	; 61
    199c:	99 23       	and	r25, r25
    199e:	59 f0       	breq	.+22     	; 0x19b6 <print_hexnumber+0x5e>
    19a0:	fe 01       	movw	r30, r28
    19a2:	32 96       	adiw	r30, 0x02	; 2
	WRITE_REG(UBRR0L,(uint8_t)(SPEED & 0xFF));
	WRITE_REG(UBRR0H,(uint8_t)(SPEED >> 8));
}

void uart_out(uint8_t data){										// –ø–µ—Ä–µ–¥–∞—á–∞ –±–∞–π—Ç–∞ —á–µ—Ä–µ–∑ UART
	while(!READ_BIT(UCSR0A,(1<<UDRE0)));							// –æ–∂–∏–¥–∞–Ω–∏–µ –≥–æ—Ç–æ–≤–Ω–æ—Å—Ç–∏ UART –∫ –ø–µ—Ä–µ–¥–∞—á–µ
    19a4:	80 91 c0 00 	lds	r24, 0x00C0	; 0x8000c0 <__TEXT_REGION_LENGTH__+0x7f80c0>
    19a8:	85 ff       	sbrs	r24, 5
    19aa:	fc cf       	rjmp	.-8      	; 0x19a4 <print_hexnumber+0x4c>
	WRITE_REG(UDR0,data);											// –∑–∞–ø–∏—Å—å –≤ —Ä–µ–≥–∏—Å—Ç—Ä UDR –±–∞–π—Ç–∞ –¥–∞–Ω–Ω—ã—Ö –Ω–∞—á–∏–Ω–∞–µ—Ç –ø—Ä–æ—Ü–µ—Å—Å –ø–µ—Ä–µ–¥–∞—á–∏
    19ac:	90 93 c6 00 	sts	0x00C6, r25	; 0x8000c6 <__TEXT_REGION_LENGTH__+0x7f80c6>
	while(!READ_BIT(UCSR0A,(1<<RXC0)));								//–æ–∂–∏–¥–∞–Ω–∏–µ –ø—Ä–∏—Ö–æ–¥–∞ –±–∞–π—Ç–∞
	return UDR0;										
}

void print_string(char *string){
	while(*string) uart_out(*string++);
    19b0:	91 91       	ld	r25, Z+
    19b2:	91 11       	cpse	r25, r1
    19b4:	f7 cf       	rjmp	.-18     	; 0x19a4 <print_hexnumber+0x4c>

void print_hexnumber(uint16_t number){
	char num_m[5]={0,};
	sprintf(num_m,"%s%x","0x", number);
	print_string(num_m);
    19b6:	0f 90       	pop	r0
    19b8:	0f 90       	pop	r0
    19ba:	0f 90       	pop	r0
    19bc:	0f 90       	pop	r0
    19be:	0f 90       	pop	r0
    19c0:	df 91       	pop	r29
    19c2:	cf 91       	pop	r28
    19c4:	08 95       	ret

000019c6 <vfprintf>:
    19c6:	a0 e1       	ldi	r26, 0x10	; 16
    19c8:	b0 e0       	ldi	r27, 0x00	; 0
    19ca:	e9 ee       	ldi	r30, 0xE9	; 233
    19cc:	fc e0       	ldi	r31, 0x0C	; 12
    19ce:	0c 94 91 10 	jmp	0x2122	; 0x2122 <__prologue_saves__>
    19d2:	7c 01       	movw	r14, r24
    19d4:	1b 01       	movw	r2, r22
    19d6:	6a 01       	movw	r12, r20
    19d8:	fc 01       	movw	r30, r24
    19da:	17 82       	std	Z+7, r1	; 0x07
    19dc:	16 82       	std	Z+6, r1	; 0x06
    19de:	83 81       	ldd	r24, Z+3	; 0x03
    19e0:	81 ff       	sbrs	r24, 1
    19e2:	44 c3       	rjmp	.+1672   	; 0x206c <vfprintf+0x6a6>
    19e4:	9e 01       	movw	r18, r28
    19e6:	2f 5f       	subi	r18, 0xFF	; 255
    19e8:	3f 4f       	sbci	r19, 0xFF	; 255
    19ea:	39 01       	movw	r6, r18
    19ec:	f7 01       	movw	r30, r14
    19ee:	93 81       	ldd	r25, Z+3	; 0x03
    19f0:	f1 01       	movw	r30, r2
    19f2:	93 fd       	sbrc	r25, 3
    19f4:	85 91       	lpm	r24, Z+
    19f6:	93 ff       	sbrs	r25, 3
    19f8:	81 91       	ld	r24, Z+
    19fa:	1f 01       	movw	r2, r30
    19fc:	88 23       	and	r24, r24
    19fe:	09 f4       	brne	.+2      	; 0x1a02 <vfprintf+0x3c>
    1a00:	31 c3       	rjmp	.+1634   	; 0x2064 <vfprintf+0x69e>
    1a02:	85 32       	cpi	r24, 0x25	; 37
    1a04:	39 f4       	brne	.+14     	; 0x1a14 <vfprintf+0x4e>
    1a06:	93 fd       	sbrc	r25, 3
    1a08:	85 91       	lpm	r24, Z+
    1a0a:	93 ff       	sbrs	r25, 3
    1a0c:	81 91       	ld	r24, Z+
    1a0e:	1f 01       	movw	r2, r30
    1a10:	85 32       	cpi	r24, 0x25	; 37
    1a12:	39 f4       	brne	.+14     	; 0x1a22 <vfprintf+0x5c>
    1a14:	b7 01       	movw	r22, r14
    1a16:	90 e0       	ldi	r25, 0x00	; 0
    1a18:	0e 94 b6 11 	call	0x236c	; 0x236c <fputc>
    1a1c:	56 01       	movw	r10, r12
    1a1e:	65 01       	movw	r12, r10
    1a20:	e5 cf       	rjmp	.-54     	; 0x19ec <vfprintf+0x26>
    1a22:	10 e0       	ldi	r17, 0x00	; 0
    1a24:	51 2c       	mov	r5, r1
    1a26:	91 2c       	mov	r9, r1
    1a28:	ff e1       	ldi	r31, 0x1F	; 31
    1a2a:	f9 15       	cp	r31, r9
    1a2c:	d8 f0       	brcs	.+54     	; 0x1a64 <vfprintf+0x9e>
    1a2e:	8b 32       	cpi	r24, 0x2B	; 43
    1a30:	79 f0       	breq	.+30     	; 0x1a50 <vfprintf+0x8a>
    1a32:	38 f4       	brcc	.+14     	; 0x1a42 <vfprintf+0x7c>
    1a34:	80 32       	cpi	r24, 0x20	; 32
    1a36:	79 f0       	breq	.+30     	; 0x1a56 <vfprintf+0x90>
    1a38:	83 32       	cpi	r24, 0x23	; 35
    1a3a:	a1 f4       	brne	.+40     	; 0x1a64 <vfprintf+0x9e>
    1a3c:	f9 2d       	mov	r31, r9
    1a3e:	f0 61       	ori	r31, 0x10	; 16
    1a40:	2e c0       	rjmp	.+92     	; 0x1a9e <vfprintf+0xd8>
    1a42:	8d 32       	cpi	r24, 0x2D	; 45
    1a44:	61 f0       	breq	.+24     	; 0x1a5e <vfprintf+0x98>
    1a46:	80 33       	cpi	r24, 0x30	; 48
    1a48:	69 f4       	brne	.+26     	; 0x1a64 <vfprintf+0x9e>
    1a4a:	29 2d       	mov	r18, r9
    1a4c:	21 60       	ori	r18, 0x01	; 1
    1a4e:	2d c0       	rjmp	.+90     	; 0x1aaa <vfprintf+0xe4>
    1a50:	39 2d       	mov	r19, r9
    1a52:	32 60       	ori	r19, 0x02	; 2
    1a54:	93 2e       	mov	r9, r19
    1a56:	89 2d       	mov	r24, r9
    1a58:	84 60       	ori	r24, 0x04	; 4
    1a5a:	98 2e       	mov	r9, r24
    1a5c:	2a c0       	rjmp	.+84     	; 0x1ab2 <vfprintf+0xec>
    1a5e:	e9 2d       	mov	r30, r9
    1a60:	e8 60       	ori	r30, 0x08	; 8
    1a62:	15 c0       	rjmp	.+42     	; 0x1a8e <vfprintf+0xc8>
    1a64:	97 fc       	sbrc	r9, 7
    1a66:	2d c0       	rjmp	.+90     	; 0x1ac2 <vfprintf+0xfc>
    1a68:	20 ed       	ldi	r18, 0xD0	; 208
    1a6a:	28 0f       	add	r18, r24
    1a6c:	2a 30       	cpi	r18, 0x0A	; 10
    1a6e:	88 f4       	brcc	.+34     	; 0x1a92 <vfprintf+0xcc>
    1a70:	96 fe       	sbrs	r9, 6
    1a72:	06 c0       	rjmp	.+12     	; 0x1a80 <vfprintf+0xba>
    1a74:	3a e0       	ldi	r19, 0x0A	; 10
    1a76:	13 9f       	mul	r17, r19
    1a78:	20 0d       	add	r18, r0
    1a7a:	11 24       	eor	r1, r1
    1a7c:	12 2f       	mov	r17, r18
    1a7e:	19 c0       	rjmp	.+50     	; 0x1ab2 <vfprintf+0xec>
    1a80:	8a e0       	ldi	r24, 0x0A	; 10
    1a82:	58 9e       	mul	r5, r24
    1a84:	20 0d       	add	r18, r0
    1a86:	11 24       	eor	r1, r1
    1a88:	52 2e       	mov	r5, r18
    1a8a:	e9 2d       	mov	r30, r9
    1a8c:	e0 62       	ori	r30, 0x20	; 32
    1a8e:	9e 2e       	mov	r9, r30
    1a90:	10 c0       	rjmp	.+32     	; 0x1ab2 <vfprintf+0xec>
    1a92:	8e 32       	cpi	r24, 0x2E	; 46
    1a94:	31 f4       	brne	.+12     	; 0x1aa2 <vfprintf+0xdc>
    1a96:	96 fc       	sbrc	r9, 6
    1a98:	e5 c2       	rjmp	.+1482   	; 0x2064 <vfprintf+0x69e>
    1a9a:	f9 2d       	mov	r31, r9
    1a9c:	f0 64       	ori	r31, 0x40	; 64
    1a9e:	9f 2e       	mov	r9, r31
    1aa0:	08 c0       	rjmp	.+16     	; 0x1ab2 <vfprintf+0xec>
    1aa2:	8c 36       	cpi	r24, 0x6C	; 108
    1aa4:	21 f4       	brne	.+8      	; 0x1aae <vfprintf+0xe8>
    1aa6:	29 2d       	mov	r18, r9
    1aa8:	20 68       	ori	r18, 0x80	; 128
    1aaa:	92 2e       	mov	r9, r18
    1aac:	02 c0       	rjmp	.+4      	; 0x1ab2 <vfprintf+0xec>
    1aae:	88 36       	cpi	r24, 0x68	; 104
    1ab0:	41 f4       	brne	.+16     	; 0x1ac2 <vfprintf+0xfc>
    1ab2:	f1 01       	movw	r30, r2
    1ab4:	93 fd       	sbrc	r25, 3
    1ab6:	85 91       	lpm	r24, Z+
    1ab8:	93 ff       	sbrs	r25, 3
    1aba:	81 91       	ld	r24, Z+
    1abc:	1f 01       	movw	r2, r30
    1abe:	81 11       	cpse	r24, r1
    1ac0:	b3 cf       	rjmp	.-154    	; 0x1a28 <vfprintf+0x62>
    1ac2:	9b eb       	ldi	r25, 0xBB	; 187
    1ac4:	98 0f       	add	r25, r24
    1ac6:	93 30       	cpi	r25, 0x03	; 3
    1ac8:	20 f4       	brcc	.+8      	; 0x1ad2 <vfprintf+0x10c>
    1aca:	99 2d       	mov	r25, r9
    1acc:	90 61       	ori	r25, 0x10	; 16
    1ace:	80 5e       	subi	r24, 0xE0	; 224
    1ad0:	07 c0       	rjmp	.+14     	; 0x1ae0 <vfprintf+0x11a>
    1ad2:	9b e9       	ldi	r25, 0x9B	; 155
    1ad4:	98 0f       	add	r25, r24
    1ad6:	93 30       	cpi	r25, 0x03	; 3
    1ad8:	08 f0       	brcs	.+2      	; 0x1adc <vfprintf+0x116>
    1ada:	66 c1       	rjmp	.+716    	; 0x1da8 <vfprintf+0x3e2>
    1adc:	99 2d       	mov	r25, r9
    1ade:	9f 7e       	andi	r25, 0xEF	; 239
    1ae0:	96 ff       	sbrs	r25, 6
    1ae2:	16 e0       	ldi	r17, 0x06	; 6
    1ae4:	9f 73       	andi	r25, 0x3F	; 63
    1ae6:	99 2e       	mov	r9, r25
    1ae8:	85 36       	cpi	r24, 0x65	; 101
    1aea:	19 f4       	brne	.+6      	; 0x1af2 <vfprintf+0x12c>
    1aec:	90 64       	ori	r25, 0x40	; 64
    1aee:	99 2e       	mov	r9, r25
    1af0:	08 c0       	rjmp	.+16     	; 0x1b02 <vfprintf+0x13c>
    1af2:	86 36       	cpi	r24, 0x66	; 102
    1af4:	21 f4       	brne	.+8      	; 0x1afe <vfprintf+0x138>
    1af6:	39 2f       	mov	r19, r25
    1af8:	30 68       	ori	r19, 0x80	; 128
    1afa:	93 2e       	mov	r9, r19
    1afc:	02 c0       	rjmp	.+4      	; 0x1b02 <vfprintf+0x13c>
    1afe:	11 11       	cpse	r17, r1
    1b00:	11 50       	subi	r17, 0x01	; 1
    1b02:	97 fe       	sbrs	r9, 7
    1b04:	07 c0       	rjmp	.+14     	; 0x1b14 <vfprintf+0x14e>
    1b06:	1c 33       	cpi	r17, 0x3C	; 60
    1b08:	50 f4       	brcc	.+20     	; 0x1b1e <vfprintf+0x158>
    1b0a:	44 24       	eor	r4, r4
    1b0c:	43 94       	inc	r4
    1b0e:	41 0e       	add	r4, r17
    1b10:	27 e0       	ldi	r18, 0x07	; 7
    1b12:	0b c0       	rjmp	.+22     	; 0x1b2a <vfprintf+0x164>
    1b14:	18 30       	cpi	r17, 0x08	; 8
    1b16:	38 f0       	brcs	.+14     	; 0x1b26 <vfprintf+0x160>
    1b18:	27 e0       	ldi	r18, 0x07	; 7
    1b1a:	17 e0       	ldi	r17, 0x07	; 7
    1b1c:	05 c0       	rjmp	.+10     	; 0x1b28 <vfprintf+0x162>
    1b1e:	27 e0       	ldi	r18, 0x07	; 7
    1b20:	9c e3       	ldi	r25, 0x3C	; 60
    1b22:	49 2e       	mov	r4, r25
    1b24:	02 c0       	rjmp	.+4      	; 0x1b2a <vfprintf+0x164>
    1b26:	21 2f       	mov	r18, r17
    1b28:	41 2c       	mov	r4, r1
    1b2a:	56 01       	movw	r10, r12
    1b2c:	84 e0       	ldi	r24, 0x04	; 4
    1b2e:	a8 0e       	add	r10, r24
    1b30:	b1 1c       	adc	r11, r1
    1b32:	f6 01       	movw	r30, r12
    1b34:	60 81       	ld	r22, Z
    1b36:	71 81       	ldd	r23, Z+1	; 0x01
    1b38:	82 81       	ldd	r24, Z+2	; 0x02
    1b3a:	93 81       	ldd	r25, Z+3	; 0x03
    1b3c:	04 2d       	mov	r16, r4
    1b3e:	a3 01       	movw	r20, r6
    1b40:	0e 94 c8 10 	call	0x2190	; 0x2190 <__ftoa_engine>
    1b44:	6c 01       	movw	r12, r24
    1b46:	f9 81       	ldd	r31, Y+1	; 0x01
    1b48:	fc 87       	std	Y+12, r31	; 0x0c
    1b4a:	f0 ff       	sbrs	r31, 0
    1b4c:	02 c0       	rjmp	.+4      	; 0x1b52 <vfprintf+0x18c>
    1b4e:	f3 ff       	sbrs	r31, 3
    1b50:	06 c0       	rjmp	.+12     	; 0x1b5e <vfprintf+0x198>
    1b52:	91 fc       	sbrc	r9, 1
    1b54:	06 c0       	rjmp	.+12     	; 0x1b62 <vfprintf+0x19c>
    1b56:	92 fe       	sbrs	r9, 2
    1b58:	06 c0       	rjmp	.+12     	; 0x1b66 <vfprintf+0x1a0>
    1b5a:	00 e2       	ldi	r16, 0x20	; 32
    1b5c:	05 c0       	rjmp	.+10     	; 0x1b68 <vfprintf+0x1a2>
    1b5e:	0d e2       	ldi	r16, 0x2D	; 45
    1b60:	03 c0       	rjmp	.+6      	; 0x1b68 <vfprintf+0x1a2>
    1b62:	0b e2       	ldi	r16, 0x2B	; 43
    1b64:	01 c0       	rjmp	.+2      	; 0x1b68 <vfprintf+0x1a2>
    1b66:	00 e0       	ldi	r16, 0x00	; 0
    1b68:	8c 85       	ldd	r24, Y+12	; 0x0c
    1b6a:	8c 70       	andi	r24, 0x0C	; 12
    1b6c:	19 f0       	breq	.+6      	; 0x1b74 <vfprintf+0x1ae>
    1b6e:	01 11       	cpse	r16, r1
    1b70:	5a c2       	rjmp	.+1204   	; 0x2026 <vfprintf+0x660>
    1b72:	9b c2       	rjmp	.+1334   	; 0x20aa <vfprintf+0x6e4>
    1b74:	97 fe       	sbrs	r9, 7
    1b76:	10 c0       	rjmp	.+32     	; 0x1b98 <vfprintf+0x1d2>
    1b78:	4c 0c       	add	r4, r12
    1b7a:	fc 85       	ldd	r31, Y+12	; 0x0c
    1b7c:	f4 ff       	sbrs	r31, 4
    1b7e:	04 c0       	rjmp	.+8      	; 0x1b88 <vfprintf+0x1c2>
    1b80:	8a 81       	ldd	r24, Y+2	; 0x02
    1b82:	81 33       	cpi	r24, 0x31	; 49
    1b84:	09 f4       	brne	.+2      	; 0x1b88 <vfprintf+0x1c2>
    1b86:	4a 94       	dec	r4
    1b88:	14 14       	cp	r1, r4
    1b8a:	74 f5       	brge	.+92     	; 0x1be8 <vfprintf+0x222>
    1b8c:	28 e0       	ldi	r18, 0x08	; 8
    1b8e:	24 15       	cp	r18, r4
    1b90:	78 f5       	brcc	.+94     	; 0x1bf0 <vfprintf+0x22a>
    1b92:	88 e0       	ldi	r24, 0x08	; 8
    1b94:	48 2e       	mov	r4, r24
    1b96:	2c c0       	rjmp	.+88     	; 0x1bf0 <vfprintf+0x22a>
    1b98:	96 fc       	sbrc	r9, 6
    1b9a:	2a c0       	rjmp	.+84     	; 0x1bf0 <vfprintf+0x22a>
    1b9c:	81 2f       	mov	r24, r17
    1b9e:	90 e0       	ldi	r25, 0x00	; 0
    1ba0:	8c 15       	cp	r24, r12
    1ba2:	9d 05       	cpc	r25, r13
    1ba4:	9c f0       	brlt	.+38     	; 0x1bcc <vfprintf+0x206>
    1ba6:	3c ef       	ldi	r19, 0xFC	; 252
    1ba8:	c3 16       	cp	r12, r19
    1baa:	3f ef       	ldi	r19, 0xFF	; 255
    1bac:	d3 06       	cpc	r13, r19
    1bae:	74 f0       	brlt	.+28     	; 0x1bcc <vfprintf+0x206>
    1bb0:	89 2d       	mov	r24, r9
    1bb2:	80 68       	ori	r24, 0x80	; 128
    1bb4:	98 2e       	mov	r9, r24
    1bb6:	0a c0       	rjmp	.+20     	; 0x1bcc <vfprintf+0x206>
    1bb8:	e2 e0       	ldi	r30, 0x02	; 2
    1bba:	f0 e0       	ldi	r31, 0x00	; 0
    1bbc:	ec 0f       	add	r30, r28
    1bbe:	fd 1f       	adc	r31, r29
    1bc0:	e1 0f       	add	r30, r17
    1bc2:	f1 1d       	adc	r31, r1
    1bc4:	80 81       	ld	r24, Z
    1bc6:	80 33       	cpi	r24, 0x30	; 48
    1bc8:	19 f4       	brne	.+6      	; 0x1bd0 <vfprintf+0x20a>
    1bca:	11 50       	subi	r17, 0x01	; 1
    1bcc:	11 11       	cpse	r17, r1
    1bce:	f4 cf       	rjmp	.-24     	; 0x1bb8 <vfprintf+0x1f2>
    1bd0:	97 fe       	sbrs	r9, 7
    1bd2:	0e c0       	rjmp	.+28     	; 0x1bf0 <vfprintf+0x22a>
    1bd4:	44 24       	eor	r4, r4
    1bd6:	43 94       	inc	r4
    1bd8:	41 0e       	add	r4, r17
    1bda:	81 2f       	mov	r24, r17
    1bdc:	90 e0       	ldi	r25, 0x00	; 0
    1bde:	c8 16       	cp	r12, r24
    1be0:	d9 06       	cpc	r13, r25
    1be2:	2c f4       	brge	.+10     	; 0x1bee <vfprintf+0x228>
    1be4:	1c 19       	sub	r17, r12
    1be6:	04 c0       	rjmp	.+8      	; 0x1bf0 <vfprintf+0x22a>
    1be8:	44 24       	eor	r4, r4
    1bea:	43 94       	inc	r4
    1bec:	01 c0       	rjmp	.+2      	; 0x1bf0 <vfprintf+0x22a>
    1bee:	10 e0       	ldi	r17, 0x00	; 0
    1bf0:	97 fe       	sbrs	r9, 7
    1bf2:	06 c0       	rjmp	.+12     	; 0x1c00 <vfprintf+0x23a>
    1bf4:	1c 14       	cp	r1, r12
    1bf6:	1d 04       	cpc	r1, r13
    1bf8:	34 f4       	brge	.+12     	; 0x1c06 <vfprintf+0x240>
    1bfa:	c6 01       	movw	r24, r12
    1bfc:	01 96       	adiw	r24, 0x01	; 1
    1bfe:	05 c0       	rjmp	.+10     	; 0x1c0a <vfprintf+0x244>
    1c00:	85 e0       	ldi	r24, 0x05	; 5
    1c02:	90 e0       	ldi	r25, 0x00	; 0
    1c04:	02 c0       	rjmp	.+4      	; 0x1c0a <vfprintf+0x244>
    1c06:	81 e0       	ldi	r24, 0x01	; 1
    1c08:	90 e0       	ldi	r25, 0x00	; 0
    1c0a:	01 11       	cpse	r16, r1
    1c0c:	01 96       	adiw	r24, 0x01	; 1
    1c0e:	11 23       	and	r17, r17
    1c10:	31 f0       	breq	.+12     	; 0x1c1e <vfprintf+0x258>
    1c12:	21 2f       	mov	r18, r17
    1c14:	30 e0       	ldi	r19, 0x00	; 0
    1c16:	2f 5f       	subi	r18, 0xFF	; 255
    1c18:	3f 4f       	sbci	r19, 0xFF	; 255
    1c1a:	82 0f       	add	r24, r18
    1c1c:	93 1f       	adc	r25, r19
    1c1e:	25 2d       	mov	r18, r5
    1c20:	30 e0       	ldi	r19, 0x00	; 0
    1c22:	82 17       	cp	r24, r18
    1c24:	93 07       	cpc	r25, r19
    1c26:	14 f4       	brge	.+4      	; 0x1c2c <vfprintf+0x266>
    1c28:	58 1a       	sub	r5, r24
    1c2a:	01 c0       	rjmp	.+2      	; 0x1c2e <vfprintf+0x268>
    1c2c:	51 2c       	mov	r5, r1
    1c2e:	89 2d       	mov	r24, r9
    1c30:	89 70       	andi	r24, 0x09	; 9
    1c32:	49 f4       	brne	.+18     	; 0x1c46 <vfprintf+0x280>
    1c34:	55 20       	and	r5, r5
    1c36:	39 f0       	breq	.+14     	; 0x1c46 <vfprintf+0x280>
    1c38:	b7 01       	movw	r22, r14
    1c3a:	80 e2       	ldi	r24, 0x20	; 32
    1c3c:	90 e0       	ldi	r25, 0x00	; 0
    1c3e:	0e 94 b6 11 	call	0x236c	; 0x236c <fputc>
    1c42:	5a 94       	dec	r5
    1c44:	f7 cf       	rjmp	.-18     	; 0x1c34 <vfprintf+0x26e>
    1c46:	00 23       	and	r16, r16
    1c48:	29 f0       	breq	.+10     	; 0x1c54 <vfprintf+0x28e>
    1c4a:	b7 01       	movw	r22, r14
    1c4c:	80 2f       	mov	r24, r16
    1c4e:	90 e0       	ldi	r25, 0x00	; 0
    1c50:	0e 94 b6 11 	call	0x236c	; 0x236c <fputc>
    1c54:	93 fc       	sbrc	r9, 3
    1c56:	09 c0       	rjmp	.+18     	; 0x1c6a <vfprintf+0x2a4>
    1c58:	55 20       	and	r5, r5
    1c5a:	39 f0       	breq	.+14     	; 0x1c6a <vfprintf+0x2a4>
    1c5c:	b7 01       	movw	r22, r14
    1c5e:	80 e3       	ldi	r24, 0x30	; 48
    1c60:	90 e0       	ldi	r25, 0x00	; 0
    1c62:	0e 94 b6 11 	call	0x236c	; 0x236c <fputc>
    1c66:	5a 94       	dec	r5
    1c68:	f7 cf       	rjmp	.-18     	; 0x1c58 <vfprintf+0x292>
    1c6a:	97 fe       	sbrs	r9, 7
    1c6c:	4c c0       	rjmp	.+152    	; 0x1d06 <vfprintf+0x340>
    1c6e:	46 01       	movw	r8, r12
    1c70:	d7 fe       	sbrs	r13, 7
    1c72:	02 c0       	rjmp	.+4      	; 0x1c78 <vfprintf+0x2b2>
    1c74:	81 2c       	mov	r8, r1
    1c76:	91 2c       	mov	r9, r1
    1c78:	c6 01       	movw	r24, r12
    1c7a:	88 19       	sub	r24, r8
    1c7c:	99 09       	sbc	r25, r9
    1c7e:	f3 01       	movw	r30, r6
    1c80:	e8 0f       	add	r30, r24
    1c82:	f9 1f       	adc	r31, r25
    1c84:	fe 87       	std	Y+14, r31	; 0x0e
    1c86:	ed 87       	std	Y+13, r30	; 0x0d
    1c88:	96 01       	movw	r18, r12
    1c8a:	24 19       	sub	r18, r4
    1c8c:	31 09       	sbc	r19, r1
    1c8e:	38 8b       	std	Y+16, r19	; 0x10
    1c90:	2f 87       	std	Y+15, r18	; 0x0f
    1c92:	01 2f       	mov	r16, r17
    1c94:	10 e0       	ldi	r17, 0x00	; 0
    1c96:	11 95       	neg	r17
    1c98:	01 95       	neg	r16
    1c9a:	11 09       	sbc	r17, r1
    1c9c:	3f ef       	ldi	r19, 0xFF	; 255
    1c9e:	83 16       	cp	r8, r19
    1ca0:	93 06       	cpc	r9, r19
    1ca2:	29 f4       	brne	.+10     	; 0x1cae <vfprintf+0x2e8>
    1ca4:	b7 01       	movw	r22, r14
    1ca6:	8e e2       	ldi	r24, 0x2E	; 46
    1ca8:	90 e0       	ldi	r25, 0x00	; 0
    1caa:	0e 94 b6 11 	call	0x236c	; 0x236c <fputc>
    1cae:	c8 14       	cp	r12, r8
    1cb0:	d9 04       	cpc	r13, r9
    1cb2:	4c f0       	brlt	.+18     	; 0x1cc6 <vfprintf+0x300>
    1cb4:	8f 85       	ldd	r24, Y+15	; 0x0f
    1cb6:	98 89       	ldd	r25, Y+16	; 0x10
    1cb8:	88 15       	cp	r24, r8
    1cba:	99 05       	cpc	r25, r9
    1cbc:	24 f4       	brge	.+8      	; 0x1cc6 <vfprintf+0x300>
    1cbe:	ed 85       	ldd	r30, Y+13	; 0x0d
    1cc0:	fe 85       	ldd	r31, Y+14	; 0x0e
    1cc2:	81 81       	ldd	r24, Z+1	; 0x01
    1cc4:	01 c0       	rjmp	.+2      	; 0x1cc8 <vfprintf+0x302>
    1cc6:	80 e3       	ldi	r24, 0x30	; 48
    1cc8:	f1 e0       	ldi	r31, 0x01	; 1
    1cca:	8f 1a       	sub	r8, r31
    1ccc:	91 08       	sbc	r9, r1
    1cce:	2d 85       	ldd	r18, Y+13	; 0x0d
    1cd0:	3e 85       	ldd	r19, Y+14	; 0x0e
    1cd2:	2f 5f       	subi	r18, 0xFF	; 255
    1cd4:	3f 4f       	sbci	r19, 0xFF	; 255
    1cd6:	3e 87       	std	Y+14, r19	; 0x0e
    1cd8:	2d 87       	std	Y+13, r18	; 0x0d
    1cda:	80 16       	cp	r8, r16
    1cdc:	91 06       	cpc	r9, r17
    1cde:	2c f0       	brlt	.+10     	; 0x1cea <vfprintf+0x324>
    1ce0:	b7 01       	movw	r22, r14
    1ce2:	90 e0       	ldi	r25, 0x00	; 0
    1ce4:	0e 94 b6 11 	call	0x236c	; 0x236c <fputc>
    1ce8:	d9 cf       	rjmp	.-78     	; 0x1c9c <vfprintf+0x2d6>
    1cea:	c8 14       	cp	r12, r8
    1cec:	d9 04       	cpc	r13, r9
    1cee:	41 f4       	brne	.+16     	; 0x1d00 <vfprintf+0x33a>
    1cf0:	9a 81       	ldd	r25, Y+2	; 0x02
    1cf2:	96 33       	cpi	r25, 0x36	; 54
    1cf4:	20 f4       	brcc	.+8      	; 0x1cfe <vfprintf+0x338>
    1cf6:	95 33       	cpi	r25, 0x35	; 53
    1cf8:	19 f4       	brne	.+6      	; 0x1d00 <vfprintf+0x33a>
    1cfa:	3c 85       	ldd	r19, Y+12	; 0x0c
    1cfc:	34 ff       	sbrs	r19, 4
    1cfe:	81 e3       	ldi	r24, 0x31	; 49
    1d00:	b7 01       	movw	r22, r14
    1d02:	90 e0       	ldi	r25, 0x00	; 0
    1d04:	4e c0       	rjmp	.+156    	; 0x1da2 <vfprintf+0x3dc>
    1d06:	8a 81       	ldd	r24, Y+2	; 0x02
    1d08:	81 33       	cpi	r24, 0x31	; 49
    1d0a:	19 f0       	breq	.+6      	; 0x1d12 <vfprintf+0x34c>
    1d0c:	9c 85       	ldd	r25, Y+12	; 0x0c
    1d0e:	9f 7e       	andi	r25, 0xEF	; 239
    1d10:	9c 87       	std	Y+12, r25	; 0x0c
    1d12:	b7 01       	movw	r22, r14
    1d14:	90 e0       	ldi	r25, 0x00	; 0
    1d16:	0e 94 b6 11 	call	0x236c	; 0x236c <fputc>
    1d1a:	11 11       	cpse	r17, r1
    1d1c:	05 c0       	rjmp	.+10     	; 0x1d28 <vfprintf+0x362>
    1d1e:	94 fc       	sbrc	r9, 4
    1d20:	18 c0       	rjmp	.+48     	; 0x1d52 <vfprintf+0x38c>
    1d22:	85 e6       	ldi	r24, 0x65	; 101
    1d24:	90 e0       	ldi	r25, 0x00	; 0
    1d26:	17 c0       	rjmp	.+46     	; 0x1d56 <vfprintf+0x390>
    1d28:	b7 01       	movw	r22, r14
    1d2a:	8e e2       	ldi	r24, 0x2E	; 46
    1d2c:	90 e0       	ldi	r25, 0x00	; 0
    1d2e:	0e 94 b6 11 	call	0x236c	; 0x236c <fputc>
    1d32:	1e 5f       	subi	r17, 0xFE	; 254
    1d34:	82 e0       	ldi	r24, 0x02	; 2
    1d36:	01 e0       	ldi	r16, 0x01	; 1
    1d38:	08 0f       	add	r16, r24
    1d3a:	f3 01       	movw	r30, r6
    1d3c:	e8 0f       	add	r30, r24
    1d3e:	f1 1d       	adc	r31, r1
    1d40:	80 81       	ld	r24, Z
    1d42:	b7 01       	movw	r22, r14
    1d44:	90 e0       	ldi	r25, 0x00	; 0
    1d46:	0e 94 b6 11 	call	0x236c	; 0x236c <fputc>
    1d4a:	80 2f       	mov	r24, r16
    1d4c:	01 13       	cpse	r16, r17
    1d4e:	f3 cf       	rjmp	.-26     	; 0x1d36 <vfprintf+0x370>
    1d50:	e6 cf       	rjmp	.-52     	; 0x1d1e <vfprintf+0x358>
    1d52:	85 e4       	ldi	r24, 0x45	; 69
    1d54:	90 e0       	ldi	r25, 0x00	; 0
    1d56:	b7 01       	movw	r22, r14
    1d58:	0e 94 b6 11 	call	0x236c	; 0x236c <fputc>
    1d5c:	d7 fc       	sbrc	r13, 7
    1d5e:	06 c0       	rjmp	.+12     	; 0x1d6c <vfprintf+0x3a6>
    1d60:	c1 14       	cp	r12, r1
    1d62:	d1 04       	cpc	r13, r1
    1d64:	41 f4       	brne	.+16     	; 0x1d76 <vfprintf+0x3b0>
    1d66:	ec 85       	ldd	r30, Y+12	; 0x0c
    1d68:	e4 ff       	sbrs	r30, 4
    1d6a:	05 c0       	rjmp	.+10     	; 0x1d76 <vfprintf+0x3b0>
    1d6c:	d1 94       	neg	r13
    1d6e:	c1 94       	neg	r12
    1d70:	d1 08       	sbc	r13, r1
    1d72:	8d e2       	ldi	r24, 0x2D	; 45
    1d74:	01 c0       	rjmp	.+2      	; 0x1d78 <vfprintf+0x3b2>
    1d76:	8b e2       	ldi	r24, 0x2B	; 43
    1d78:	b7 01       	movw	r22, r14
    1d7a:	90 e0       	ldi	r25, 0x00	; 0
    1d7c:	0e 94 b6 11 	call	0x236c	; 0x236c <fputc>
    1d80:	80 e3       	ldi	r24, 0x30	; 48
    1d82:	2a e0       	ldi	r18, 0x0A	; 10
    1d84:	c2 16       	cp	r12, r18
    1d86:	d1 04       	cpc	r13, r1
    1d88:	2c f0       	brlt	.+10     	; 0x1d94 <vfprintf+0x3ce>
    1d8a:	8f 5f       	subi	r24, 0xFF	; 255
    1d8c:	fa e0       	ldi	r31, 0x0A	; 10
    1d8e:	cf 1a       	sub	r12, r31
    1d90:	d1 08       	sbc	r13, r1
    1d92:	f7 cf       	rjmp	.-18     	; 0x1d82 <vfprintf+0x3bc>
    1d94:	b7 01       	movw	r22, r14
    1d96:	90 e0       	ldi	r25, 0x00	; 0
    1d98:	0e 94 b6 11 	call	0x236c	; 0x236c <fputc>
    1d9c:	b7 01       	movw	r22, r14
    1d9e:	c6 01       	movw	r24, r12
    1da0:	c0 96       	adiw	r24, 0x30	; 48
    1da2:	0e 94 b6 11 	call	0x236c	; 0x236c <fputc>
    1da6:	54 c1       	rjmp	.+680    	; 0x2050 <vfprintf+0x68a>
    1da8:	83 36       	cpi	r24, 0x63	; 99
    1daa:	31 f0       	breq	.+12     	; 0x1db8 <vfprintf+0x3f2>
    1dac:	83 37       	cpi	r24, 0x73	; 115
    1dae:	79 f0       	breq	.+30     	; 0x1dce <vfprintf+0x408>
    1db0:	83 35       	cpi	r24, 0x53	; 83
    1db2:	09 f0       	breq	.+2      	; 0x1db6 <vfprintf+0x3f0>
    1db4:	56 c0       	rjmp	.+172    	; 0x1e62 <vfprintf+0x49c>
    1db6:	20 c0       	rjmp	.+64     	; 0x1df8 <vfprintf+0x432>
    1db8:	56 01       	movw	r10, r12
    1dba:	32 e0       	ldi	r19, 0x02	; 2
    1dbc:	a3 0e       	add	r10, r19
    1dbe:	b1 1c       	adc	r11, r1
    1dc0:	f6 01       	movw	r30, r12
    1dc2:	80 81       	ld	r24, Z
    1dc4:	89 83       	std	Y+1, r24	; 0x01
    1dc6:	01 e0       	ldi	r16, 0x01	; 1
    1dc8:	10 e0       	ldi	r17, 0x00	; 0
    1dca:	63 01       	movw	r12, r6
    1dcc:	12 c0       	rjmp	.+36     	; 0x1df2 <vfprintf+0x42c>
    1dce:	56 01       	movw	r10, r12
    1dd0:	f2 e0       	ldi	r31, 0x02	; 2
    1dd2:	af 0e       	add	r10, r31
    1dd4:	b1 1c       	adc	r11, r1
    1dd6:	f6 01       	movw	r30, r12
    1dd8:	c0 80       	ld	r12, Z
    1dda:	d1 80       	ldd	r13, Z+1	; 0x01
    1ddc:	96 fe       	sbrs	r9, 6
    1dde:	03 c0       	rjmp	.+6      	; 0x1de6 <vfprintf+0x420>
    1de0:	61 2f       	mov	r22, r17
    1de2:	70 e0       	ldi	r23, 0x00	; 0
    1de4:	02 c0       	rjmp	.+4      	; 0x1dea <vfprintf+0x424>
    1de6:	6f ef       	ldi	r22, 0xFF	; 255
    1de8:	7f ef       	ldi	r23, 0xFF	; 255
    1dea:	c6 01       	movw	r24, r12
    1dec:	0e 94 ab 11 	call	0x2356	; 0x2356 <strnlen>
    1df0:	8c 01       	movw	r16, r24
    1df2:	f9 2d       	mov	r31, r9
    1df4:	ff 77       	andi	r31, 0x7F	; 127
    1df6:	14 c0       	rjmp	.+40     	; 0x1e20 <vfprintf+0x45a>
    1df8:	56 01       	movw	r10, r12
    1dfa:	22 e0       	ldi	r18, 0x02	; 2
    1dfc:	a2 0e       	add	r10, r18
    1dfe:	b1 1c       	adc	r11, r1
    1e00:	f6 01       	movw	r30, r12
    1e02:	c0 80       	ld	r12, Z
    1e04:	d1 80       	ldd	r13, Z+1	; 0x01
    1e06:	96 fe       	sbrs	r9, 6
    1e08:	03 c0       	rjmp	.+6      	; 0x1e10 <vfprintf+0x44a>
    1e0a:	61 2f       	mov	r22, r17
    1e0c:	70 e0       	ldi	r23, 0x00	; 0
    1e0e:	02 c0       	rjmp	.+4      	; 0x1e14 <vfprintf+0x44e>
    1e10:	6f ef       	ldi	r22, 0xFF	; 255
    1e12:	7f ef       	ldi	r23, 0xFF	; 255
    1e14:	c6 01       	movw	r24, r12
    1e16:	0e 94 a0 11 	call	0x2340	; 0x2340 <strnlen_P>
    1e1a:	8c 01       	movw	r16, r24
    1e1c:	f9 2d       	mov	r31, r9
    1e1e:	f0 68       	ori	r31, 0x80	; 128
    1e20:	9f 2e       	mov	r9, r31
    1e22:	f3 fd       	sbrc	r31, 3
    1e24:	1a c0       	rjmp	.+52     	; 0x1e5a <vfprintf+0x494>
    1e26:	85 2d       	mov	r24, r5
    1e28:	90 e0       	ldi	r25, 0x00	; 0
    1e2a:	08 17       	cp	r16, r24
    1e2c:	19 07       	cpc	r17, r25
    1e2e:	a8 f4       	brcc	.+42     	; 0x1e5a <vfprintf+0x494>
    1e30:	b7 01       	movw	r22, r14
    1e32:	80 e2       	ldi	r24, 0x20	; 32
    1e34:	90 e0       	ldi	r25, 0x00	; 0
    1e36:	0e 94 b6 11 	call	0x236c	; 0x236c <fputc>
    1e3a:	5a 94       	dec	r5
    1e3c:	f4 cf       	rjmp	.-24     	; 0x1e26 <vfprintf+0x460>
    1e3e:	f6 01       	movw	r30, r12
    1e40:	97 fc       	sbrc	r9, 7
    1e42:	85 91       	lpm	r24, Z+
    1e44:	97 fe       	sbrs	r9, 7
    1e46:	81 91       	ld	r24, Z+
    1e48:	6f 01       	movw	r12, r30
    1e4a:	b7 01       	movw	r22, r14
    1e4c:	90 e0       	ldi	r25, 0x00	; 0
    1e4e:	0e 94 b6 11 	call	0x236c	; 0x236c <fputc>
    1e52:	51 10       	cpse	r5, r1
    1e54:	5a 94       	dec	r5
    1e56:	01 50       	subi	r16, 0x01	; 1
    1e58:	11 09       	sbc	r17, r1
    1e5a:	01 15       	cp	r16, r1
    1e5c:	11 05       	cpc	r17, r1
    1e5e:	79 f7       	brne	.-34     	; 0x1e3e <vfprintf+0x478>
    1e60:	f7 c0       	rjmp	.+494    	; 0x2050 <vfprintf+0x68a>
    1e62:	84 36       	cpi	r24, 0x64	; 100
    1e64:	11 f0       	breq	.+4      	; 0x1e6a <vfprintf+0x4a4>
    1e66:	89 36       	cpi	r24, 0x69	; 105
    1e68:	61 f5       	brne	.+88     	; 0x1ec2 <vfprintf+0x4fc>
    1e6a:	56 01       	movw	r10, r12
    1e6c:	97 fe       	sbrs	r9, 7
    1e6e:	09 c0       	rjmp	.+18     	; 0x1e82 <vfprintf+0x4bc>
    1e70:	24 e0       	ldi	r18, 0x04	; 4
    1e72:	a2 0e       	add	r10, r18
    1e74:	b1 1c       	adc	r11, r1
    1e76:	f6 01       	movw	r30, r12
    1e78:	60 81       	ld	r22, Z
    1e7a:	71 81       	ldd	r23, Z+1	; 0x01
    1e7c:	82 81       	ldd	r24, Z+2	; 0x02
    1e7e:	93 81       	ldd	r25, Z+3	; 0x03
    1e80:	0a c0       	rjmp	.+20     	; 0x1e96 <vfprintf+0x4d0>
    1e82:	f2 e0       	ldi	r31, 0x02	; 2
    1e84:	af 0e       	add	r10, r31
    1e86:	b1 1c       	adc	r11, r1
    1e88:	f6 01       	movw	r30, r12
    1e8a:	60 81       	ld	r22, Z
    1e8c:	71 81       	ldd	r23, Z+1	; 0x01
    1e8e:	07 2e       	mov	r0, r23
    1e90:	00 0c       	add	r0, r0
    1e92:	88 0b       	sbc	r24, r24
    1e94:	99 0b       	sbc	r25, r25
    1e96:	f9 2d       	mov	r31, r9
    1e98:	ff 76       	andi	r31, 0x6F	; 111
    1e9a:	9f 2e       	mov	r9, r31
    1e9c:	97 ff       	sbrs	r25, 7
    1e9e:	09 c0       	rjmp	.+18     	; 0x1eb2 <vfprintf+0x4ec>
    1ea0:	90 95       	com	r25
    1ea2:	80 95       	com	r24
    1ea4:	70 95       	com	r23
    1ea6:	61 95       	neg	r22
    1ea8:	7f 4f       	sbci	r23, 0xFF	; 255
    1eaa:	8f 4f       	sbci	r24, 0xFF	; 255
    1eac:	9f 4f       	sbci	r25, 0xFF	; 255
    1eae:	f0 68       	ori	r31, 0x80	; 128
    1eb0:	9f 2e       	mov	r9, r31
    1eb2:	2a e0       	ldi	r18, 0x0A	; 10
    1eb4:	30 e0       	ldi	r19, 0x00	; 0
    1eb6:	a3 01       	movw	r20, r6
    1eb8:	0e 94 14 12 	call	0x2428	; 0x2428 <__ultoa_invert>
    1ebc:	c8 2e       	mov	r12, r24
    1ebe:	c6 18       	sub	r12, r6
    1ec0:	3f c0       	rjmp	.+126    	; 0x1f40 <vfprintf+0x57a>
    1ec2:	09 2d       	mov	r16, r9
    1ec4:	85 37       	cpi	r24, 0x75	; 117
    1ec6:	21 f4       	brne	.+8      	; 0x1ed0 <vfprintf+0x50a>
    1ec8:	0f 7e       	andi	r16, 0xEF	; 239
    1eca:	2a e0       	ldi	r18, 0x0A	; 10
    1ecc:	30 e0       	ldi	r19, 0x00	; 0
    1ece:	1d c0       	rjmp	.+58     	; 0x1f0a <vfprintf+0x544>
    1ed0:	09 7f       	andi	r16, 0xF9	; 249
    1ed2:	8f 36       	cpi	r24, 0x6F	; 111
    1ed4:	91 f0       	breq	.+36     	; 0x1efa <vfprintf+0x534>
    1ed6:	18 f4       	brcc	.+6      	; 0x1ede <vfprintf+0x518>
    1ed8:	88 35       	cpi	r24, 0x58	; 88
    1eda:	59 f0       	breq	.+22     	; 0x1ef2 <vfprintf+0x52c>
    1edc:	c3 c0       	rjmp	.+390    	; 0x2064 <vfprintf+0x69e>
    1ede:	80 37       	cpi	r24, 0x70	; 112
    1ee0:	19 f0       	breq	.+6      	; 0x1ee8 <vfprintf+0x522>
    1ee2:	88 37       	cpi	r24, 0x78	; 120
    1ee4:	11 f0       	breq	.+4      	; 0x1eea <vfprintf+0x524>
    1ee6:	be c0       	rjmp	.+380    	; 0x2064 <vfprintf+0x69e>
    1ee8:	00 61       	ori	r16, 0x10	; 16
    1eea:	04 ff       	sbrs	r16, 4
    1eec:	09 c0       	rjmp	.+18     	; 0x1f00 <vfprintf+0x53a>
    1eee:	04 60       	ori	r16, 0x04	; 4
    1ef0:	07 c0       	rjmp	.+14     	; 0x1f00 <vfprintf+0x53a>
    1ef2:	94 fe       	sbrs	r9, 4
    1ef4:	08 c0       	rjmp	.+16     	; 0x1f06 <vfprintf+0x540>
    1ef6:	06 60       	ori	r16, 0x06	; 6
    1ef8:	06 c0       	rjmp	.+12     	; 0x1f06 <vfprintf+0x540>
    1efa:	28 e0       	ldi	r18, 0x08	; 8
    1efc:	30 e0       	ldi	r19, 0x00	; 0
    1efe:	05 c0       	rjmp	.+10     	; 0x1f0a <vfprintf+0x544>
    1f00:	20 e1       	ldi	r18, 0x10	; 16
    1f02:	30 e0       	ldi	r19, 0x00	; 0
    1f04:	02 c0       	rjmp	.+4      	; 0x1f0a <vfprintf+0x544>
    1f06:	20 e1       	ldi	r18, 0x10	; 16
    1f08:	32 e0       	ldi	r19, 0x02	; 2
    1f0a:	56 01       	movw	r10, r12
    1f0c:	07 ff       	sbrs	r16, 7
    1f0e:	09 c0       	rjmp	.+18     	; 0x1f22 <vfprintf+0x55c>
    1f10:	84 e0       	ldi	r24, 0x04	; 4
    1f12:	a8 0e       	add	r10, r24
    1f14:	b1 1c       	adc	r11, r1
    1f16:	f6 01       	movw	r30, r12
    1f18:	60 81       	ld	r22, Z
    1f1a:	71 81       	ldd	r23, Z+1	; 0x01
    1f1c:	82 81       	ldd	r24, Z+2	; 0x02
    1f1e:	93 81       	ldd	r25, Z+3	; 0x03
    1f20:	08 c0       	rjmp	.+16     	; 0x1f32 <vfprintf+0x56c>
    1f22:	f2 e0       	ldi	r31, 0x02	; 2
    1f24:	af 0e       	add	r10, r31
    1f26:	b1 1c       	adc	r11, r1
    1f28:	f6 01       	movw	r30, r12
    1f2a:	60 81       	ld	r22, Z
    1f2c:	71 81       	ldd	r23, Z+1	; 0x01
    1f2e:	80 e0       	ldi	r24, 0x00	; 0
    1f30:	90 e0       	ldi	r25, 0x00	; 0
    1f32:	a3 01       	movw	r20, r6
    1f34:	0e 94 14 12 	call	0x2428	; 0x2428 <__ultoa_invert>
    1f38:	c8 2e       	mov	r12, r24
    1f3a:	c6 18       	sub	r12, r6
    1f3c:	0f 77       	andi	r16, 0x7F	; 127
    1f3e:	90 2e       	mov	r9, r16
    1f40:	96 fe       	sbrs	r9, 6
    1f42:	0b c0       	rjmp	.+22     	; 0x1f5a <vfprintf+0x594>
    1f44:	09 2d       	mov	r16, r9
    1f46:	0e 7f       	andi	r16, 0xFE	; 254
    1f48:	c1 16       	cp	r12, r17
    1f4a:	50 f4       	brcc	.+20     	; 0x1f60 <vfprintf+0x59a>
    1f4c:	94 fe       	sbrs	r9, 4
    1f4e:	0a c0       	rjmp	.+20     	; 0x1f64 <vfprintf+0x59e>
    1f50:	92 fc       	sbrc	r9, 2
    1f52:	08 c0       	rjmp	.+16     	; 0x1f64 <vfprintf+0x59e>
    1f54:	09 2d       	mov	r16, r9
    1f56:	0e 7e       	andi	r16, 0xEE	; 238
    1f58:	05 c0       	rjmp	.+10     	; 0x1f64 <vfprintf+0x59e>
    1f5a:	dc 2c       	mov	r13, r12
    1f5c:	09 2d       	mov	r16, r9
    1f5e:	03 c0       	rjmp	.+6      	; 0x1f66 <vfprintf+0x5a0>
    1f60:	dc 2c       	mov	r13, r12
    1f62:	01 c0       	rjmp	.+2      	; 0x1f66 <vfprintf+0x5a0>
    1f64:	d1 2e       	mov	r13, r17
    1f66:	04 ff       	sbrs	r16, 4
    1f68:	0d c0       	rjmp	.+26     	; 0x1f84 <vfprintf+0x5be>
    1f6a:	fe 01       	movw	r30, r28
    1f6c:	ec 0d       	add	r30, r12
    1f6e:	f1 1d       	adc	r31, r1
    1f70:	80 81       	ld	r24, Z
    1f72:	80 33       	cpi	r24, 0x30	; 48
    1f74:	11 f4       	brne	.+4      	; 0x1f7a <vfprintf+0x5b4>
    1f76:	09 7e       	andi	r16, 0xE9	; 233
    1f78:	09 c0       	rjmp	.+18     	; 0x1f8c <vfprintf+0x5c6>
    1f7a:	02 ff       	sbrs	r16, 2
    1f7c:	06 c0       	rjmp	.+12     	; 0x1f8a <vfprintf+0x5c4>
    1f7e:	d3 94       	inc	r13
    1f80:	d3 94       	inc	r13
    1f82:	04 c0       	rjmp	.+8      	; 0x1f8c <vfprintf+0x5c6>
    1f84:	80 2f       	mov	r24, r16
    1f86:	86 78       	andi	r24, 0x86	; 134
    1f88:	09 f0       	breq	.+2      	; 0x1f8c <vfprintf+0x5c6>
    1f8a:	d3 94       	inc	r13
    1f8c:	03 fd       	sbrc	r16, 3
    1f8e:	11 c0       	rjmp	.+34     	; 0x1fb2 <vfprintf+0x5ec>
    1f90:	00 ff       	sbrs	r16, 0
    1f92:	06 c0       	rjmp	.+12     	; 0x1fa0 <vfprintf+0x5da>
    1f94:	1c 2d       	mov	r17, r12
    1f96:	d5 14       	cp	r13, r5
    1f98:	80 f4       	brcc	.+32     	; 0x1fba <vfprintf+0x5f4>
    1f9a:	15 0d       	add	r17, r5
    1f9c:	1d 19       	sub	r17, r13
    1f9e:	0d c0       	rjmp	.+26     	; 0x1fba <vfprintf+0x5f4>
    1fa0:	d5 14       	cp	r13, r5
    1fa2:	58 f4       	brcc	.+22     	; 0x1fba <vfprintf+0x5f4>
    1fa4:	b7 01       	movw	r22, r14
    1fa6:	80 e2       	ldi	r24, 0x20	; 32
    1fa8:	90 e0       	ldi	r25, 0x00	; 0
    1faa:	0e 94 b6 11 	call	0x236c	; 0x236c <fputc>
    1fae:	d3 94       	inc	r13
    1fb0:	f7 cf       	rjmp	.-18     	; 0x1fa0 <vfprintf+0x5da>
    1fb2:	d5 14       	cp	r13, r5
    1fb4:	10 f4       	brcc	.+4      	; 0x1fba <vfprintf+0x5f4>
    1fb6:	5d 18       	sub	r5, r13
    1fb8:	01 c0       	rjmp	.+2      	; 0x1fbc <vfprintf+0x5f6>
    1fba:	51 2c       	mov	r5, r1
    1fbc:	04 ff       	sbrs	r16, 4
    1fbe:	10 c0       	rjmp	.+32     	; 0x1fe0 <vfprintf+0x61a>
    1fc0:	b7 01       	movw	r22, r14
    1fc2:	80 e3       	ldi	r24, 0x30	; 48
    1fc4:	90 e0       	ldi	r25, 0x00	; 0
    1fc6:	0e 94 b6 11 	call	0x236c	; 0x236c <fputc>
    1fca:	02 ff       	sbrs	r16, 2
    1fcc:	17 c0       	rjmp	.+46     	; 0x1ffc <vfprintf+0x636>
    1fce:	01 fd       	sbrc	r16, 1
    1fd0:	03 c0       	rjmp	.+6      	; 0x1fd8 <vfprintf+0x612>
    1fd2:	88 e7       	ldi	r24, 0x78	; 120
    1fd4:	90 e0       	ldi	r25, 0x00	; 0
    1fd6:	02 c0       	rjmp	.+4      	; 0x1fdc <vfprintf+0x616>
    1fd8:	88 e5       	ldi	r24, 0x58	; 88
    1fda:	90 e0       	ldi	r25, 0x00	; 0
    1fdc:	b7 01       	movw	r22, r14
    1fde:	0c c0       	rjmp	.+24     	; 0x1ff8 <vfprintf+0x632>
    1fe0:	80 2f       	mov	r24, r16
    1fe2:	86 78       	andi	r24, 0x86	; 134
    1fe4:	59 f0       	breq	.+22     	; 0x1ffc <vfprintf+0x636>
    1fe6:	01 ff       	sbrs	r16, 1
    1fe8:	02 c0       	rjmp	.+4      	; 0x1fee <vfprintf+0x628>
    1fea:	8b e2       	ldi	r24, 0x2B	; 43
    1fec:	01 c0       	rjmp	.+2      	; 0x1ff0 <vfprintf+0x62a>
    1fee:	80 e2       	ldi	r24, 0x20	; 32
    1ff0:	07 fd       	sbrc	r16, 7
    1ff2:	8d e2       	ldi	r24, 0x2D	; 45
    1ff4:	b7 01       	movw	r22, r14
    1ff6:	90 e0       	ldi	r25, 0x00	; 0
    1ff8:	0e 94 b6 11 	call	0x236c	; 0x236c <fputc>
    1ffc:	c1 16       	cp	r12, r17
    1ffe:	38 f4       	brcc	.+14     	; 0x200e <vfprintf+0x648>
    2000:	b7 01       	movw	r22, r14
    2002:	80 e3       	ldi	r24, 0x30	; 48
    2004:	90 e0       	ldi	r25, 0x00	; 0
    2006:	0e 94 b6 11 	call	0x236c	; 0x236c <fputc>
    200a:	11 50       	subi	r17, 0x01	; 1
    200c:	f7 cf       	rjmp	.-18     	; 0x1ffc <vfprintf+0x636>
    200e:	ca 94       	dec	r12
    2010:	f3 01       	movw	r30, r6
    2012:	ec 0d       	add	r30, r12
    2014:	f1 1d       	adc	r31, r1
    2016:	80 81       	ld	r24, Z
    2018:	b7 01       	movw	r22, r14
    201a:	90 e0       	ldi	r25, 0x00	; 0
    201c:	0e 94 b6 11 	call	0x236c	; 0x236c <fputc>
    2020:	c1 10       	cpse	r12, r1
    2022:	f5 cf       	rjmp	.-22     	; 0x200e <vfprintf+0x648>
    2024:	15 c0       	rjmp	.+42     	; 0x2050 <vfprintf+0x68a>
    2026:	f4 e0       	ldi	r31, 0x04	; 4
    2028:	f5 15       	cp	r31, r5
    202a:	60 f5       	brcc	.+88     	; 0x2084 <vfprintf+0x6be>
    202c:	84 e0       	ldi	r24, 0x04	; 4
    202e:	58 1a       	sub	r5, r24
    2030:	93 fe       	sbrs	r9, 3
    2032:	1f c0       	rjmp	.+62     	; 0x2072 <vfprintf+0x6ac>
    2034:	01 11       	cpse	r16, r1
    2036:	27 c0       	rjmp	.+78     	; 0x2086 <vfprintf+0x6c0>
    2038:	2c 85       	ldd	r18, Y+12	; 0x0c
    203a:	23 ff       	sbrs	r18, 3
    203c:	2a c0       	rjmp	.+84     	; 0x2092 <vfprintf+0x6cc>
    203e:	08 e6       	ldi	r16, 0x68	; 104
    2040:	10 e0       	ldi	r17, 0x00	; 0
    2042:	39 2d       	mov	r19, r9
    2044:	30 71       	andi	r19, 0x10	; 16
    2046:	93 2e       	mov	r9, r19
    2048:	f8 01       	movw	r30, r16
    204a:	84 91       	lpm	r24, Z
    204c:	81 11       	cpse	r24, r1
    204e:	24 c0       	rjmp	.+72     	; 0x2098 <vfprintf+0x6d2>
    2050:	55 20       	and	r5, r5
    2052:	09 f4       	brne	.+2      	; 0x2056 <vfprintf+0x690>
    2054:	e4 cc       	rjmp	.-1592   	; 0x1a1e <vfprintf+0x58>
    2056:	b7 01       	movw	r22, r14
    2058:	80 e2       	ldi	r24, 0x20	; 32
    205a:	90 e0       	ldi	r25, 0x00	; 0
    205c:	0e 94 b6 11 	call	0x236c	; 0x236c <fputc>
    2060:	5a 94       	dec	r5
    2062:	f6 cf       	rjmp	.-20     	; 0x2050 <vfprintf+0x68a>
    2064:	f7 01       	movw	r30, r14
    2066:	86 81       	ldd	r24, Z+6	; 0x06
    2068:	97 81       	ldd	r25, Z+7	; 0x07
    206a:	26 c0       	rjmp	.+76     	; 0x20b8 <vfprintf+0x6f2>
    206c:	8f ef       	ldi	r24, 0xFF	; 255
    206e:	9f ef       	ldi	r25, 0xFF	; 255
    2070:	23 c0       	rjmp	.+70     	; 0x20b8 <vfprintf+0x6f2>
    2072:	b7 01       	movw	r22, r14
    2074:	80 e2       	ldi	r24, 0x20	; 32
    2076:	90 e0       	ldi	r25, 0x00	; 0
    2078:	0e 94 b6 11 	call	0x236c	; 0x236c <fputc>
    207c:	5a 94       	dec	r5
    207e:	51 10       	cpse	r5, r1
    2080:	f8 cf       	rjmp	.-16     	; 0x2072 <vfprintf+0x6ac>
    2082:	d8 cf       	rjmp	.-80     	; 0x2034 <vfprintf+0x66e>
    2084:	51 2c       	mov	r5, r1
    2086:	b7 01       	movw	r22, r14
    2088:	80 2f       	mov	r24, r16
    208a:	90 e0       	ldi	r25, 0x00	; 0
    208c:	0e 94 b6 11 	call	0x236c	; 0x236c <fputc>
    2090:	d3 cf       	rjmp	.-90     	; 0x2038 <vfprintf+0x672>
    2092:	0c e6       	ldi	r16, 0x6C	; 108
    2094:	10 e0       	ldi	r17, 0x00	; 0
    2096:	d5 cf       	rjmp	.-86     	; 0x2042 <vfprintf+0x67c>
    2098:	91 10       	cpse	r9, r1
    209a:	80 52       	subi	r24, 0x20	; 32
    209c:	b7 01       	movw	r22, r14
    209e:	90 e0       	ldi	r25, 0x00	; 0
    20a0:	0e 94 b6 11 	call	0x236c	; 0x236c <fputc>
    20a4:	0f 5f       	subi	r16, 0xFF	; 255
    20a6:	1f 4f       	sbci	r17, 0xFF	; 255
    20a8:	cf cf       	rjmp	.-98     	; 0x2048 <vfprintf+0x682>
    20aa:	23 e0       	ldi	r18, 0x03	; 3
    20ac:	25 15       	cp	r18, r5
    20ae:	10 f4       	brcc	.+4      	; 0x20b4 <vfprintf+0x6ee>
    20b0:	83 e0       	ldi	r24, 0x03	; 3
    20b2:	bd cf       	rjmp	.-134    	; 0x202e <vfprintf+0x668>
    20b4:	51 2c       	mov	r5, r1
    20b6:	c0 cf       	rjmp	.-128    	; 0x2038 <vfprintf+0x672>
    20b8:	60 96       	adiw	r28, 0x10	; 16
    20ba:	e2 e1       	ldi	r30, 0x12	; 18
    20bc:	0c 94 ad 10 	jmp	0x215a	; 0x215a <__epilogue_restores__>

000020c0 <__udivmodsi4>:
    20c0:	a1 e2       	ldi	r26, 0x21	; 33
    20c2:	1a 2e       	mov	r1, r26
    20c4:	aa 1b       	sub	r26, r26
    20c6:	bb 1b       	sub	r27, r27
    20c8:	fd 01       	movw	r30, r26
    20ca:	0d c0       	rjmp	.+26     	; 0x20e6 <__udivmodsi4_ep>

000020cc <__udivmodsi4_loop>:
    20cc:	aa 1f       	adc	r26, r26
    20ce:	bb 1f       	adc	r27, r27
    20d0:	ee 1f       	adc	r30, r30
    20d2:	ff 1f       	adc	r31, r31
    20d4:	a2 17       	cp	r26, r18
    20d6:	b3 07       	cpc	r27, r19
    20d8:	e4 07       	cpc	r30, r20
    20da:	f5 07       	cpc	r31, r21
    20dc:	20 f0       	brcs	.+8      	; 0x20e6 <__udivmodsi4_ep>
    20de:	a2 1b       	sub	r26, r18
    20e0:	b3 0b       	sbc	r27, r19
    20e2:	e4 0b       	sbc	r30, r20
    20e4:	f5 0b       	sbc	r31, r21

000020e6 <__udivmodsi4_ep>:
    20e6:	66 1f       	adc	r22, r22
    20e8:	77 1f       	adc	r23, r23
    20ea:	88 1f       	adc	r24, r24
    20ec:	99 1f       	adc	r25, r25
    20ee:	1a 94       	dec	r1
    20f0:	69 f7       	brne	.-38     	; 0x20cc <__udivmodsi4_loop>
    20f2:	60 95       	com	r22
    20f4:	70 95       	com	r23
    20f6:	80 95       	com	r24
    20f8:	90 95       	com	r25
    20fa:	9b 01       	movw	r18, r22
    20fc:	ac 01       	movw	r20, r24
    20fe:	bd 01       	movw	r22, r26
    2100:	cf 01       	movw	r24, r30
    2102:	08 95       	ret

00002104 <__umulhisi3>:
    2104:	a2 9f       	mul	r26, r18
    2106:	b0 01       	movw	r22, r0
    2108:	b3 9f       	mul	r27, r19
    210a:	c0 01       	movw	r24, r0
    210c:	a3 9f       	mul	r26, r19
    210e:	70 0d       	add	r23, r0
    2110:	81 1d       	adc	r24, r1
    2112:	11 24       	eor	r1, r1
    2114:	91 1d       	adc	r25, r1
    2116:	b2 9f       	mul	r27, r18
    2118:	70 0d       	add	r23, r0
    211a:	81 1d       	adc	r24, r1
    211c:	11 24       	eor	r1, r1
    211e:	91 1d       	adc	r25, r1
    2120:	08 95       	ret

00002122 <__prologue_saves__>:
    2122:	2f 92       	push	r2
    2124:	3f 92       	push	r3
    2126:	4f 92       	push	r4
    2128:	5f 92       	push	r5
    212a:	6f 92       	push	r6
    212c:	7f 92       	push	r7
    212e:	8f 92       	push	r8
    2130:	9f 92       	push	r9
    2132:	af 92       	push	r10
    2134:	bf 92       	push	r11
    2136:	cf 92       	push	r12
    2138:	df 92       	push	r13
    213a:	ef 92       	push	r14
    213c:	ff 92       	push	r15
    213e:	0f 93       	push	r16
    2140:	1f 93       	push	r17
    2142:	cf 93       	push	r28
    2144:	df 93       	push	r29
    2146:	cd b7       	in	r28, 0x3d	; 61
    2148:	de b7       	in	r29, 0x3e	; 62
    214a:	ca 1b       	sub	r28, r26
    214c:	db 0b       	sbc	r29, r27
    214e:	0f b6       	in	r0, 0x3f	; 63
    2150:	f8 94       	cli
    2152:	de bf       	out	0x3e, r29	; 62
    2154:	0f be       	out	0x3f, r0	; 63
    2156:	cd bf       	out	0x3d, r28	; 61
    2158:	09 94       	ijmp

0000215a <__epilogue_restores__>:
    215a:	2a 88       	ldd	r2, Y+18	; 0x12
    215c:	39 88       	ldd	r3, Y+17	; 0x11
    215e:	48 88       	ldd	r4, Y+16	; 0x10
    2160:	5f 84       	ldd	r5, Y+15	; 0x0f
    2162:	6e 84       	ldd	r6, Y+14	; 0x0e
    2164:	7d 84       	ldd	r7, Y+13	; 0x0d
    2166:	8c 84       	ldd	r8, Y+12	; 0x0c
    2168:	9b 84       	ldd	r9, Y+11	; 0x0b
    216a:	aa 84       	ldd	r10, Y+10	; 0x0a
    216c:	b9 84       	ldd	r11, Y+9	; 0x09
    216e:	c8 84       	ldd	r12, Y+8	; 0x08
    2170:	df 80       	ldd	r13, Y+7	; 0x07
    2172:	ee 80       	ldd	r14, Y+6	; 0x06
    2174:	fd 80       	ldd	r15, Y+5	; 0x05
    2176:	0c 81       	ldd	r16, Y+4	; 0x04
    2178:	1b 81       	ldd	r17, Y+3	; 0x03
    217a:	aa 81       	ldd	r26, Y+2	; 0x02
    217c:	b9 81       	ldd	r27, Y+1	; 0x01
    217e:	ce 0f       	add	r28, r30
    2180:	d1 1d       	adc	r29, r1
    2182:	0f b6       	in	r0, 0x3f	; 63
    2184:	f8 94       	cli
    2186:	de bf       	out	0x3e, r29	; 62
    2188:	0f be       	out	0x3f, r0	; 63
    218a:	cd bf       	out	0x3d, r28	; 61
    218c:	ed 01       	movw	r28, r26
    218e:	08 95       	ret

00002190 <__ftoa_engine>:
    2190:	28 30       	cpi	r18, 0x08	; 8
    2192:	08 f0       	brcs	.+2      	; 0x2196 <__ftoa_engine+0x6>
    2194:	27 e0       	ldi	r18, 0x07	; 7
    2196:	33 27       	eor	r19, r19
    2198:	da 01       	movw	r26, r20
    219a:	99 0f       	add	r25, r25
    219c:	31 1d       	adc	r19, r1
    219e:	87 fd       	sbrc	r24, 7
    21a0:	91 60       	ori	r25, 0x01	; 1
    21a2:	00 96       	adiw	r24, 0x00	; 0
    21a4:	61 05       	cpc	r22, r1
    21a6:	71 05       	cpc	r23, r1
    21a8:	39 f4       	brne	.+14     	; 0x21b8 <__ftoa_engine+0x28>
    21aa:	32 60       	ori	r19, 0x02	; 2
    21ac:	2e 5f       	subi	r18, 0xFE	; 254
    21ae:	3d 93       	st	X+, r19
    21b0:	30 e3       	ldi	r19, 0x30	; 48
    21b2:	2a 95       	dec	r18
    21b4:	e1 f7       	brne	.-8      	; 0x21ae <__ftoa_engine+0x1e>
    21b6:	08 95       	ret
    21b8:	9f 3f       	cpi	r25, 0xFF	; 255
    21ba:	30 f0       	brcs	.+12     	; 0x21c8 <__ftoa_engine+0x38>
    21bc:	80 38       	cpi	r24, 0x80	; 128
    21be:	71 05       	cpc	r23, r1
    21c0:	61 05       	cpc	r22, r1
    21c2:	09 f0       	breq	.+2      	; 0x21c6 <__ftoa_engine+0x36>
    21c4:	3c 5f       	subi	r19, 0xFC	; 252
    21c6:	3c 5f       	subi	r19, 0xFC	; 252
    21c8:	3d 93       	st	X+, r19
    21ca:	91 30       	cpi	r25, 0x01	; 1
    21cc:	08 f0       	brcs	.+2      	; 0x21d0 <__ftoa_engine+0x40>
    21ce:	80 68       	ori	r24, 0x80	; 128
    21d0:	91 1d       	adc	r25, r1
    21d2:	df 93       	push	r29
    21d4:	cf 93       	push	r28
    21d6:	1f 93       	push	r17
    21d8:	0f 93       	push	r16
    21da:	ff 92       	push	r15
    21dc:	ef 92       	push	r14
    21de:	19 2f       	mov	r17, r25
    21e0:	98 7f       	andi	r25, 0xF8	; 248
    21e2:	96 95       	lsr	r25
    21e4:	e9 2f       	mov	r30, r25
    21e6:	96 95       	lsr	r25
    21e8:	96 95       	lsr	r25
    21ea:	e9 0f       	add	r30, r25
    21ec:	ff 27       	eor	r31, r31
    21ee:	e6 53       	subi	r30, 0x36	; 54
    21f0:	ff 4f       	sbci	r31, 0xFF	; 255
    21f2:	99 27       	eor	r25, r25
    21f4:	33 27       	eor	r19, r19
    21f6:	ee 24       	eor	r14, r14
    21f8:	ff 24       	eor	r15, r15
    21fa:	a7 01       	movw	r20, r14
    21fc:	e7 01       	movw	r28, r14
    21fe:	05 90       	lpm	r0, Z+
    2200:	08 94       	sec
    2202:	07 94       	ror	r0
    2204:	28 f4       	brcc	.+10     	; 0x2210 <__ftoa_engine+0x80>
    2206:	36 0f       	add	r19, r22
    2208:	e7 1e       	adc	r14, r23
    220a:	f8 1e       	adc	r15, r24
    220c:	49 1f       	adc	r20, r25
    220e:	51 1d       	adc	r21, r1
    2210:	66 0f       	add	r22, r22
    2212:	77 1f       	adc	r23, r23
    2214:	88 1f       	adc	r24, r24
    2216:	99 1f       	adc	r25, r25
    2218:	06 94       	lsr	r0
    221a:	a1 f7       	brne	.-24     	; 0x2204 <__ftoa_engine+0x74>
    221c:	05 90       	lpm	r0, Z+
    221e:	07 94       	ror	r0
    2220:	28 f4       	brcc	.+10     	; 0x222c <__ftoa_engine+0x9c>
    2222:	e7 0e       	add	r14, r23
    2224:	f8 1e       	adc	r15, r24
    2226:	49 1f       	adc	r20, r25
    2228:	56 1f       	adc	r21, r22
    222a:	c1 1d       	adc	r28, r1
    222c:	77 0f       	add	r23, r23
    222e:	88 1f       	adc	r24, r24
    2230:	99 1f       	adc	r25, r25
    2232:	66 1f       	adc	r22, r22
    2234:	06 94       	lsr	r0
    2236:	a1 f7       	brne	.-24     	; 0x2220 <__ftoa_engine+0x90>
    2238:	05 90       	lpm	r0, Z+
    223a:	07 94       	ror	r0
    223c:	28 f4       	brcc	.+10     	; 0x2248 <__ftoa_engine+0xb8>
    223e:	f8 0e       	add	r15, r24
    2240:	49 1f       	adc	r20, r25
    2242:	56 1f       	adc	r21, r22
    2244:	c7 1f       	adc	r28, r23
    2246:	d1 1d       	adc	r29, r1
    2248:	88 0f       	add	r24, r24
    224a:	99 1f       	adc	r25, r25
    224c:	66 1f       	adc	r22, r22
    224e:	77 1f       	adc	r23, r23
    2250:	06 94       	lsr	r0
    2252:	a1 f7       	brne	.-24     	; 0x223c <__ftoa_engine+0xac>
    2254:	05 90       	lpm	r0, Z+
    2256:	07 94       	ror	r0
    2258:	20 f4       	brcc	.+8      	; 0x2262 <__ftoa_engine+0xd2>
    225a:	49 0f       	add	r20, r25
    225c:	56 1f       	adc	r21, r22
    225e:	c7 1f       	adc	r28, r23
    2260:	d8 1f       	adc	r29, r24
    2262:	99 0f       	add	r25, r25
    2264:	66 1f       	adc	r22, r22
    2266:	77 1f       	adc	r23, r23
    2268:	88 1f       	adc	r24, r24
    226a:	06 94       	lsr	r0
    226c:	a9 f7       	brne	.-22     	; 0x2258 <__ftoa_engine+0xc8>
    226e:	84 91       	lpm	r24, Z
    2270:	10 95       	com	r17
    2272:	17 70       	andi	r17, 0x07	; 7
    2274:	41 f0       	breq	.+16     	; 0x2286 <__ftoa_engine+0xf6>
    2276:	d6 95       	lsr	r29
    2278:	c7 95       	ror	r28
    227a:	57 95       	ror	r21
    227c:	47 95       	ror	r20
    227e:	f7 94       	ror	r15
    2280:	e7 94       	ror	r14
    2282:	1a 95       	dec	r17
    2284:	c1 f7       	brne	.-16     	; 0x2276 <__ftoa_engine+0xe6>
    2286:	e0 e7       	ldi	r30, 0x70	; 112
    2288:	f0 e0       	ldi	r31, 0x00	; 0
    228a:	68 94       	set
    228c:	15 90       	lpm	r1, Z+
    228e:	15 91       	lpm	r17, Z+
    2290:	35 91       	lpm	r19, Z+
    2292:	65 91       	lpm	r22, Z+
    2294:	95 91       	lpm	r25, Z+
    2296:	05 90       	lpm	r0, Z+
    2298:	7f e2       	ldi	r23, 0x2F	; 47
    229a:	73 95       	inc	r23
    229c:	e1 18       	sub	r14, r1
    229e:	f1 0a       	sbc	r15, r17
    22a0:	43 0b       	sbc	r20, r19
    22a2:	56 0b       	sbc	r21, r22
    22a4:	c9 0b       	sbc	r28, r25
    22a6:	d0 09       	sbc	r29, r0
    22a8:	c0 f7       	brcc	.-16     	; 0x229a <__ftoa_engine+0x10a>
    22aa:	e1 0c       	add	r14, r1
    22ac:	f1 1e       	adc	r15, r17
    22ae:	43 1f       	adc	r20, r19
    22b0:	56 1f       	adc	r21, r22
    22b2:	c9 1f       	adc	r28, r25
    22b4:	d0 1d       	adc	r29, r0
    22b6:	7e f4       	brtc	.+30     	; 0x22d6 <__ftoa_engine+0x146>
    22b8:	70 33       	cpi	r23, 0x30	; 48
    22ba:	11 f4       	brne	.+4      	; 0x22c0 <__ftoa_engine+0x130>
    22bc:	8a 95       	dec	r24
    22be:	e6 cf       	rjmp	.-52     	; 0x228c <__ftoa_engine+0xfc>
    22c0:	e8 94       	clt
    22c2:	01 50       	subi	r16, 0x01	; 1
    22c4:	30 f0       	brcs	.+12     	; 0x22d2 <__ftoa_engine+0x142>
    22c6:	08 0f       	add	r16, r24
    22c8:	0a f4       	brpl	.+2      	; 0x22cc <__ftoa_engine+0x13c>
    22ca:	00 27       	eor	r16, r16
    22cc:	02 17       	cp	r16, r18
    22ce:	08 f4       	brcc	.+2      	; 0x22d2 <__ftoa_engine+0x142>
    22d0:	20 2f       	mov	r18, r16
    22d2:	23 95       	inc	r18
    22d4:	02 2f       	mov	r16, r18
    22d6:	7a 33       	cpi	r23, 0x3A	; 58
    22d8:	28 f0       	brcs	.+10     	; 0x22e4 <__ftoa_engine+0x154>
    22da:	79 e3       	ldi	r23, 0x39	; 57
    22dc:	7d 93       	st	X+, r23
    22de:	2a 95       	dec	r18
    22e0:	e9 f7       	brne	.-6      	; 0x22dc <__ftoa_engine+0x14c>
    22e2:	10 c0       	rjmp	.+32     	; 0x2304 <__ftoa_engine+0x174>
    22e4:	7d 93       	st	X+, r23
    22e6:	2a 95       	dec	r18
    22e8:	89 f6       	brne	.-94     	; 0x228c <__ftoa_engine+0xfc>
    22ea:	06 94       	lsr	r0
    22ec:	97 95       	ror	r25
    22ee:	67 95       	ror	r22
    22f0:	37 95       	ror	r19
    22f2:	17 95       	ror	r17
    22f4:	17 94       	ror	r1
    22f6:	e1 18       	sub	r14, r1
    22f8:	f1 0a       	sbc	r15, r17
    22fa:	43 0b       	sbc	r20, r19
    22fc:	56 0b       	sbc	r21, r22
    22fe:	c9 0b       	sbc	r28, r25
    2300:	d0 09       	sbc	r29, r0
    2302:	98 f0       	brcs	.+38     	; 0x232a <__ftoa_engine+0x19a>
    2304:	23 95       	inc	r18
    2306:	7e 91       	ld	r23, -X
    2308:	73 95       	inc	r23
    230a:	7a 33       	cpi	r23, 0x3A	; 58
    230c:	08 f0       	brcs	.+2      	; 0x2310 <__ftoa_engine+0x180>
    230e:	70 e3       	ldi	r23, 0x30	; 48
    2310:	7c 93       	st	X, r23
    2312:	20 13       	cpse	r18, r16
    2314:	b8 f7       	brcc	.-18     	; 0x2304 <__ftoa_engine+0x174>
    2316:	7e 91       	ld	r23, -X
    2318:	70 61       	ori	r23, 0x10	; 16
    231a:	7d 93       	st	X+, r23
    231c:	30 f0       	brcs	.+12     	; 0x232a <__ftoa_engine+0x19a>
    231e:	83 95       	inc	r24
    2320:	71 e3       	ldi	r23, 0x31	; 49
    2322:	7d 93       	st	X+, r23
    2324:	70 e3       	ldi	r23, 0x30	; 48
    2326:	2a 95       	dec	r18
    2328:	e1 f7       	brne	.-8      	; 0x2322 <__ftoa_engine+0x192>
    232a:	11 24       	eor	r1, r1
    232c:	ef 90       	pop	r14
    232e:	ff 90       	pop	r15
    2330:	0f 91       	pop	r16
    2332:	1f 91       	pop	r17
    2334:	cf 91       	pop	r28
    2336:	df 91       	pop	r29
    2338:	99 27       	eor	r25, r25
    233a:	87 fd       	sbrc	r24, 7
    233c:	90 95       	com	r25
    233e:	08 95       	ret

00002340 <strnlen_P>:
    2340:	fc 01       	movw	r30, r24
    2342:	05 90       	lpm	r0, Z+
    2344:	61 50       	subi	r22, 0x01	; 1
    2346:	70 40       	sbci	r23, 0x00	; 0
    2348:	01 10       	cpse	r0, r1
    234a:	d8 f7       	brcc	.-10     	; 0x2342 <strnlen_P+0x2>
    234c:	80 95       	com	r24
    234e:	90 95       	com	r25
    2350:	8e 0f       	add	r24, r30
    2352:	9f 1f       	adc	r25, r31
    2354:	08 95       	ret

00002356 <strnlen>:
    2356:	fc 01       	movw	r30, r24
    2358:	61 50       	subi	r22, 0x01	; 1
    235a:	70 40       	sbci	r23, 0x00	; 0
    235c:	01 90       	ld	r0, Z+
    235e:	01 10       	cpse	r0, r1
    2360:	d8 f7       	brcc	.-10     	; 0x2358 <strnlen+0x2>
    2362:	80 95       	com	r24
    2364:	90 95       	com	r25
    2366:	8e 0f       	add	r24, r30
    2368:	9f 1f       	adc	r25, r31
    236a:	08 95       	ret

0000236c <fputc>:
    236c:	0f 93       	push	r16
    236e:	1f 93       	push	r17
    2370:	cf 93       	push	r28
    2372:	df 93       	push	r29
    2374:	fb 01       	movw	r30, r22
    2376:	23 81       	ldd	r18, Z+3	; 0x03
    2378:	21 fd       	sbrc	r18, 1
    237a:	03 c0       	rjmp	.+6      	; 0x2382 <fputc+0x16>
    237c:	8f ef       	ldi	r24, 0xFF	; 255
    237e:	9f ef       	ldi	r25, 0xFF	; 255
    2380:	2c c0       	rjmp	.+88     	; 0x23da <fputc+0x6e>
    2382:	22 ff       	sbrs	r18, 2
    2384:	16 c0       	rjmp	.+44     	; 0x23b2 <fputc+0x46>
    2386:	46 81       	ldd	r20, Z+6	; 0x06
    2388:	57 81       	ldd	r21, Z+7	; 0x07
    238a:	24 81       	ldd	r18, Z+4	; 0x04
    238c:	35 81       	ldd	r19, Z+5	; 0x05
    238e:	42 17       	cp	r20, r18
    2390:	53 07       	cpc	r21, r19
    2392:	44 f4       	brge	.+16     	; 0x23a4 <fputc+0x38>
    2394:	a0 81       	ld	r26, Z
    2396:	b1 81       	ldd	r27, Z+1	; 0x01
    2398:	9d 01       	movw	r18, r26
    239a:	2f 5f       	subi	r18, 0xFF	; 255
    239c:	3f 4f       	sbci	r19, 0xFF	; 255
    239e:	31 83       	std	Z+1, r19	; 0x01
    23a0:	20 83       	st	Z, r18
    23a2:	8c 93       	st	X, r24
    23a4:	26 81       	ldd	r18, Z+6	; 0x06
    23a6:	37 81       	ldd	r19, Z+7	; 0x07
    23a8:	2f 5f       	subi	r18, 0xFF	; 255
    23aa:	3f 4f       	sbci	r19, 0xFF	; 255
    23ac:	37 83       	std	Z+7, r19	; 0x07
    23ae:	26 83       	std	Z+6, r18	; 0x06
    23b0:	14 c0       	rjmp	.+40     	; 0x23da <fputc+0x6e>
    23b2:	8b 01       	movw	r16, r22
    23b4:	ec 01       	movw	r28, r24
    23b6:	fb 01       	movw	r30, r22
    23b8:	00 84       	ldd	r0, Z+8	; 0x08
    23ba:	f1 85       	ldd	r31, Z+9	; 0x09
    23bc:	e0 2d       	mov	r30, r0
    23be:	09 95       	icall
    23c0:	89 2b       	or	r24, r25
    23c2:	e1 f6       	brne	.-72     	; 0x237c <fputc+0x10>
    23c4:	d8 01       	movw	r26, r16
    23c6:	16 96       	adiw	r26, 0x06	; 6
    23c8:	8d 91       	ld	r24, X+
    23ca:	9c 91       	ld	r25, X
    23cc:	17 97       	sbiw	r26, 0x07	; 7
    23ce:	01 96       	adiw	r24, 0x01	; 1
    23d0:	17 96       	adiw	r26, 0x07	; 7
    23d2:	9c 93       	st	X, r25
    23d4:	8e 93       	st	-X, r24
    23d6:	16 97       	sbiw	r26, 0x06	; 6
    23d8:	ce 01       	movw	r24, r28
    23da:	df 91       	pop	r29
    23dc:	cf 91       	pop	r28
    23de:	1f 91       	pop	r17
    23e0:	0f 91       	pop	r16
    23e2:	08 95       	ret

000023e4 <sprintf>:
    23e4:	ae e0       	ldi	r26, 0x0E	; 14
    23e6:	b0 e0       	ldi	r27, 0x00	; 0
    23e8:	e8 ef       	ldi	r30, 0xF8	; 248
    23ea:	f1 e1       	ldi	r31, 0x11	; 17
    23ec:	0c 94 9f 10 	jmp	0x213e	; 0x213e <__prologue_saves__+0x1c>
    23f0:	0d 89       	ldd	r16, Y+21	; 0x15
    23f2:	1e 89       	ldd	r17, Y+22	; 0x16
    23f4:	86 e0       	ldi	r24, 0x06	; 6
    23f6:	8c 83       	std	Y+4, r24	; 0x04
    23f8:	1a 83       	std	Y+2, r17	; 0x02
    23fa:	09 83       	std	Y+1, r16	; 0x01
    23fc:	8f ef       	ldi	r24, 0xFF	; 255
    23fe:	9f e7       	ldi	r25, 0x7F	; 127
    2400:	9e 83       	std	Y+6, r25	; 0x06
    2402:	8d 83       	std	Y+5, r24	; 0x05
    2404:	ae 01       	movw	r20, r28
    2406:	47 5e       	subi	r20, 0xE7	; 231
    2408:	5f 4f       	sbci	r21, 0xFF	; 255
    240a:	6f 89       	ldd	r22, Y+23	; 0x17
    240c:	78 8d       	ldd	r23, Y+24	; 0x18
    240e:	ce 01       	movw	r24, r28
    2410:	01 96       	adiw	r24, 0x01	; 1
    2412:	0e 94 e3 0c 	call	0x19c6	; 0x19c6 <vfprintf>
    2416:	ef 81       	ldd	r30, Y+7	; 0x07
    2418:	f8 85       	ldd	r31, Y+8	; 0x08
    241a:	e0 0f       	add	r30, r16
    241c:	f1 1f       	adc	r31, r17
    241e:	10 82       	st	Z, r1
    2420:	2e 96       	adiw	r28, 0x0e	; 14
    2422:	e4 e0       	ldi	r30, 0x04	; 4
    2424:	0c 94 bb 10 	jmp	0x2176	; 0x2176 <__epilogue_restores__+0x1c>

00002428 <__ultoa_invert>:
    2428:	fa 01       	movw	r30, r20
    242a:	aa 27       	eor	r26, r26
    242c:	28 30       	cpi	r18, 0x08	; 8
    242e:	51 f1       	breq	.+84     	; 0x2484 <__ultoa_invert+0x5c>
    2430:	20 31       	cpi	r18, 0x10	; 16
    2432:	81 f1       	breq	.+96     	; 0x2494 <__ultoa_invert+0x6c>
    2434:	e8 94       	clt
    2436:	6f 93       	push	r22
    2438:	6e 7f       	andi	r22, 0xFE	; 254
    243a:	6e 5f       	subi	r22, 0xFE	; 254
    243c:	7f 4f       	sbci	r23, 0xFF	; 255
    243e:	8f 4f       	sbci	r24, 0xFF	; 255
    2440:	9f 4f       	sbci	r25, 0xFF	; 255
    2442:	af 4f       	sbci	r26, 0xFF	; 255
    2444:	b1 e0       	ldi	r27, 0x01	; 1
    2446:	3e d0       	rcall	.+124    	; 0x24c4 <__ultoa_invert+0x9c>
    2448:	b4 e0       	ldi	r27, 0x04	; 4
    244a:	3c d0       	rcall	.+120    	; 0x24c4 <__ultoa_invert+0x9c>
    244c:	67 0f       	add	r22, r23
    244e:	78 1f       	adc	r23, r24
    2450:	89 1f       	adc	r24, r25
    2452:	9a 1f       	adc	r25, r26
    2454:	a1 1d       	adc	r26, r1
    2456:	68 0f       	add	r22, r24
    2458:	79 1f       	adc	r23, r25
    245a:	8a 1f       	adc	r24, r26
    245c:	91 1d       	adc	r25, r1
    245e:	a1 1d       	adc	r26, r1
    2460:	6a 0f       	add	r22, r26
    2462:	71 1d       	adc	r23, r1
    2464:	81 1d       	adc	r24, r1
    2466:	91 1d       	adc	r25, r1
    2468:	a1 1d       	adc	r26, r1
    246a:	20 d0       	rcall	.+64     	; 0x24ac <__ultoa_invert+0x84>
    246c:	09 f4       	brne	.+2      	; 0x2470 <__ultoa_invert+0x48>
    246e:	68 94       	set
    2470:	3f 91       	pop	r19
    2472:	2a e0       	ldi	r18, 0x0A	; 10
    2474:	26 9f       	mul	r18, r22
    2476:	11 24       	eor	r1, r1
    2478:	30 19       	sub	r19, r0
    247a:	30 5d       	subi	r19, 0xD0	; 208
    247c:	31 93       	st	Z+, r19
    247e:	de f6       	brtc	.-74     	; 0x2436 <__ultoa_invert+0xe>
    2480:	cf 01       	movw	r24, r30
    2482:	08 95       	ret
    2484:	46 2f       	mov	r20, r22
    2486:	47 70       	andi	r20, 0x07	; 7
    2488:	40 5d       	subi	r20, 0xD0	; 208
    248a:	41 93       	st	Z+, r20
    248c:	b3 e0       	ldi	r27, 0x03	; 3
    248e:	0f d0       	rcall	.+30     	; 0x24ae <__ultoa_invert+0x86>
    2490:	c9 f7       	brne	.-14     	; 0x2484 <__ultoa_invert+0x5c>
    2492:	f6 cf       	rjmp	.-20     	; 0x2480 <__ultoa_invert+0x58>
    2494:	46 2f       	mov	r20, r22
    2496:	4f 70       	andi	r20, 0x0F	; 15
    2498:	40 5d       	subi	r20, 0xD0	; 208
    249a:	4a 33       	cpi	r20, 0x3A	; 58
    249c:	18 f0       	brcs	.+6      	; 0x24a4 <__ultoa_invert+0x7c>
    249e:	49 5d       	subi	r20, 0xD9	; 217
    24a0:	31 fd       	sbrc	r19, 1
    24a2:	40 52       	subi	r20, 0x20	; 32
    24a4:	41 93       	st	Z+, r20
    24a6:	02 d0       	rcall	.+4      	; 0x24ac <__ultoa_invert+0x84>
    24a8:	a9 f7       	brne	.-22     	; 0x2494 <__ultoa_invert+0x6c>
    24aa:	ea cf       	rjmp	.-44     	; 0x2480 <__ultoa_invert+0x58>
    24ac:	b4 e0       	ldi	r27, 0x04	; 4
    24ae:	a6 95       	lsr	r26
    24b0:	97 95       	ror	r25
    24b2:	87 95       	ror	r24
    24b4:	77 95       	ror	r23
    24b6:	67 95       	ror	r22
    24b8:	ba 95       	dec	r27
    24ba:	c9 f7       	brne	.-14     	; 0x24ae <__ultoa_invert+0x86>
    24bc:	00 97       	sbiw	r24, 0x00	; 0
    24be:	61 05       	cpc	r22, r1
    24c0:	71 05       	cpc	r23, r1
    24c2:	08 95       	ret
    24c4:	9b 01       	movw	r18, r22
    24c6:	ac 01       	movw	r20, r24
    24c8:	0a 2e       	mov	r0, r26
    24ca:	06 94       	lsr	r0
    24cc:	57 95       	ror	r21
    24ce:	47 95       	ror	r20
    24d0:	37 95       	ror	r19
    24d2:	27 95       	ror	r18
    24d4:	ba 95       	dec	r27
    24d6:	c9 f7       	brne	.-14     	; 0x24ca <__ultoa_invert+0xa2>
    24d8:	62 0f       	add	r22, r18
    24da:	73 1f       	adc	r23, r19
    24dc:	84 1f       	adc	r24, r20
    24de:	95 1f       	adc	r25, r21
    24e0:	a0 1d       	adc	r26, r0
    24e2:	08 95       	ret

000024e4 <_exit>:
    24e4:	f8 94       	cli

000024e6 <__stop_program>:
    24e6:	ff cf       	rjmp	.-2      	; 0x24e6 <__stop_program>
